

Microchip MPLAB XC8 Assembler V2.40 build 20220703182018 
                                                                                               Fri May 19 20:17:49 2023

Microchip MPLAB XC8 C Compiler v2.40 (Free license) build 20220703182018 Og9 
     1                           	processor	18F4550
     2                           	fnconf	rparam,??,?,0
     3                           	pagewidth 120
     4                           	opt	flic
     5                           	psect	idataCOMRAM,global,class=CODE,delta=1,noexec
     6                           	psect	smallconst,global,reloc=2,class=SMALLCONST,delta=1,noexec
     7                           	psect	cinit,global,reloc=2,class=CODE,delta=1
     8                           	psect	bssCOMRAM,global,class=COMRAM,space=1,delta=1,lowdata,noexec
     9                           	psect	dataCOMRAM,global,class=COMRAM,space=1,delta=1,lowdata,noexec
    10                           	psect	cstackCOMRAM,global,class=COMRAM,space=1,delta=1,lowdata,noexec
    11                           	psect	text0,global,reloc=2,class=CODE,delta=1
    12                           	psect	text1,global,reloc=2,class=CODE,delta=1
    13                           	psect	text2,global,reloc=2,class=CODE,delta=1
    14                           	psect	text3,global,reloc=2,class=CODE,delta=1,group=1
    15                           	psect	text4,global,reloc=2,class=CODE,delta=1,group=1
    16                           	psect	text5,global,reloc=2,class=CODE,delta=1,group=1
    17                           	psect	text6,global,reloc=2,class=CODE,delta=1,group=1
    18                           	psect	text7,global,reloc=2,class=CODE,delta=1,group=1
    19                           	psect	text8,global,reloc=2,class=CODE,delta=1,group=1
    20                           	psect	text9,global,reloc=2,class=CODE,delta=1
    21                           	psect	text10,global,reloc=2,class=CODE,delta=1
    22                           	psect	text11,global,reloc=2,class=CODE,delta=1
    23                           	psect	text12,global,reloc=2,class=CODE,delta=1
    24                           	psect	text13,global,reloc=2,class=CODE,delta=1
    25                           	psect	text14,global,reloc=2,class=CODE,delta=1
    26                           	psect	text15,global,reloc=2,class=CODE,delta=1
    27                           	psect	text16,global,reloc=2,class=CODE,delta=1
    28                           	psect	text17,global,reloc=2,class=CODE,delta=1
    29                           	psect	text18,global,reloc=2,class=CODE,delta=1
    30                           	psect	text19,global,reloc=2,class=CODE,delta=1
    31                           	psect	text20,global,reloc=2,class=CODE,delta=1
    32                           	psect	text21,global,reloc=2,class=CODE,delta=1
    33                           	psect	text22,global,reloc=2,class=CODE,delta=1
    34                           	psect	text23,global,reloc=2,class=CODE,delta=1
    35                           	psect	text24,global,reloc=2,class=CODE,delta=1
    36                           	psect	intcode,global,reloc=2,class=CODE,delta=1
    37                           	psect	intcode_body,global,reloc=2,class=CODE,delta=1
    38                           	psect	text26,global,reloc=2,class=CODE,delta=1
    39                           	psect	text27,global,reloc=2,class=CODE,delta=1
    40                           	psect	text28,global,reloc=2,class=CODE,delta=1
    41                           	psect	text29,global,reloc=2,class=CODE,delta=1
    42                           	psect	text30,global,reloc=2,class=CODE,delta=1
    43                           	psect	text31,global,reloc=2,class=CODE,delta=1
    44                           	psect	text32,global,reloc=2,class=CODE,delta=1
    45                           	psect	text33,global,reloc=2,class=CODE,delta=1
    46                           	psect	text34,global,reloc=2,class=CODE,delta=1
    47                           	psect	text35,global,reloc=2,class=CODE,delta=1
    48                           	psect	text36,global,reloc=2,class=CODE,delta=1
    49                           	psect	text37,global,reloc=2,class=CODE,delta=1
    50                           	psect	text38,global,reloc=2,class=CODE,delta=1
    51                           	psect	text39,global,reloc=2,class=CODE,delta=1
    52                           	psect	text40,global,reloc=2,class=CODE,delta=1
    53                           	psect	text41,global,reloc=2,class=CODE,delta=1
    54                           	psect	intsave_regs,global,class=BIGRAM,space=1,delta=1,noexec
    55                           	psect	rparam,global,class=COMRAM,space=1,delta=1,noexec
    56                           	psect	temp,global,ovrld,common,class=COMRAM,space=1,delta=1
    57                           	psect	idloc,global,abs,ovrld,class=IDLOC,space=5,delta=1,noexec
    58                           	psect	config,global,abs,ovrld,class=CONFIG,space=4,delta=1,noexec
    59   000000                     
    60                           ; Version 2.40
    61                           ; Generated 04/07/2022 GMT
    62                           ; 
    63                           ; Copyright © 2022, Microchip Technology Inc. and its subsidiaries ("Microchip")
    64                           ; All rights reserved.
    65                           ; 
    66                           ; This software is developed by Microchip Technology Inc. and its subsidiaries ("Microch
      +                          ip").
    67                           ; 
    68                           ; Redistribution and use in source and binary forms, with or without modification, are
    69                           ; permitted provided that the following conditions are met:
    70                           ; 
    71                           ;     1. Redistributions of source code must retain the above copyright notice, this lis
      +                          t of
    72                           ;        conditions and the following disclaimer.
    73                           ; 
    74                           ;     2. Redistributions in binary form must reproduce the above copyright notice, this 
      +                          list
    75                           ;        of conditions and the following disclaimer in the documentation and/or other
    76                           ;        materials provided with the distribution. Publication is not required when
    77                           ;        this file is used in an embedded application.
    78                           ; 
    79                           ;     3. Microchip's name may not be used to endorse or promote products derived from th
      +                          is
    80                           ;        software without specific prior written permission.
    81                           ; 
    82                           ; THIS SOFTWARE IS PROVIDED BY MICROCHIP "AS IS" AND ANY EXPRESS OR IMPLIED WARRANTIES,
    83                           ; INCLUDING, BUT NOT LIMITED TO, THE IMPLIED WARRANTIES OF MERCHANTABILITY AND FITNESS F
      +                          OR
    84                           ; PURPOSE ARE DISCLAIMED.  IN NO EVENT SHALL MICROCHIP BE LIABLE FOR ANY DIRECT, INDIREC
      +                          T,
    85                           ; INCIDENTAL, SPECIAL, EXEMPLARY, OR CONSEQUENTIAL DAMAGES (INCLUDING BUT NOT LIMITED TO
    86                           ; PROCUREMENT OF SUBSTITUTE GOODS OR SERVICES; LOSS OF USE, DATA OR PROFITS; OR BUSINESS
    87                           ; INTERRUPTION) HOWSOEVER CAUSED AND ON ANY THEORY OF LIABILITY, WHETHER IN CONTRACT, ST
      +                          RICT
    88                           ; LIABILITY, OR TORT (INCLUDING NEGLIGENCE OR OTHERWISE) ARISING IN ANY WAY OUT OF THE U
      +                          SE OF
    89                           ; THIS SOFTWARE, EVEN IF ADVISED OF THE POSSIBILITY OF SUCH DAMAGE.
    90                           ; 
    91                           ; 
    92                           ; Code-generator required, PIC18F4550 Definitions
    93                           ; 
    94                           ; SFR Addresses
    95   000000                     
    96                           	psect	idataCOMRAM
    97   00189C                     __pidataCOMRAM:
    98                           	callstack 0
    99                           
   100                           ;initializer for _interfaz
   101   00189C  08                 	db	8
   102   000000                     _EECON2	set	4007
   103   000000                     _RCREG	set	4014
   104   000000                     _TXREG	set	4013
   105   000000                     _TRISC	set	3988
   106   000000                     _TRISD	set	3989
   107   000000                     _SPBRG	set	4015
   108   000000                     _BAUDCON	set	4024
   109   000000                     _RD4	set	31772
   110   000000                     _RD	set	32048
   111   000000                     _WR	set	32049
   112   000000                     _WREN	set	32050
   113   000000                     _CFGS	set	32054
   114   000000                     _GO	set	32273
   115   000000                     _RD2	set	31770
   116   000000                     _RD1	set	31769
   117   000000                     _RD0	set	31768
   118   000000                     _TRMT	set	32097
   119   000000                     _RC2	set	31762
   120   000000                     _TRISC2	set	31906
   121   000000                     _RC1	set	31761
   122   000000                     _TMR0ON	set	32431
   123   000000                     _GIE	set	32663
   124   000000                     _TMR0IE	set	32661
   125   000000                     _LATD7	set	31847
   126   000000                     _LATD6	set	31846
   127   000000                     _LATD	set	3980
   128   000000                     _RC0	set	31760
   129   000000                     _LATC2	set	31834
   130   000000                     _TRISA	set	3986
   131   000000                     _TRISB	set	3987
   132   000000                     _RCSTA	set	4011
   133   000000                     _TXSTA	set	4012
   134   000000                     _OSCCON	set	4051
   135   000000                     _T0CON	set	4053
   136   000000                     _RBPU	set	32655
   137   000000                     _ADCON2	set	4032
   138   000000                     _ADCON1	set	4033
   139   000000                     _ADCON0	set	4034
   140   000000                     _ADRES	set	4035
   141   000000                     _RCIF	set	31989
   142   000000                     _TMR0IF	set	32658
   143   000000                     _TMR0	set	4054
   144   000000                     _RD3	set	31771
   145   000000                     _EEDATA	set	4008
   146   000000                     _EEADR	set	4009
   147   000000                     _EEIF	set	32012
   148   000000                     _EEPGD	set	32055
   149                           
   150                           	psect	smallconst
   151   000800                     __psmallconst:
   152                           	callstack 0
   153   000800  00                 	db	0
   154   000801                     STR_1:
   155   000801  55                 	db	85	;'U'
   156   000802  6C                 	db	108	;'l'
   157   000803  74                 	db	116	;'t'
   158   000804  69                 	db	105	;'i'
   159   000805  6D                 	db	109	;'m'
   160   000806  61                 	db	97	;'a'
   161   000807  20                 	db	32
   162   000808  74                 	db	116	;'t'
   163   000809  65                 	db	101	;'e'
   164   00080A  6D                 	db	109	;'m'
   165   00080B  70                 	db	112	;'p'
   166   00080C  3A                 	db	58	;':'
   167   00080D  00                 	db	0
   168   00080E                     STR_2:
   169   00080E  49                 	db	73	;'I'
   170   00080F  6E                 	db	110	;'n'
   171   000810  69                 	db	105	;'i'
   172   000811  63                 	db	99	;'c'
   173   000812  69                 	db	105	;'i'
   174   000813  61                 	db	97	;'a'
   175   000814  6E                 	db	110	;'n'
   176   000815  64                 	db	100	;'d'
   177   000816  6F                 	db	111	;'o'
   178   000817  00                 	db	0
   179   000818                     STR_3:
   180   000818  54                 	db	84	;'T'
   181   000819  65                 	db	101	;'e'
   182   00081A  6D                 	db	109	;'m'
   183   00081B  70                 	db	112	;'p'
   184   00081C  3A                 	db	58	;':'
   185   00081D  00                 	db	0
   186   00081E                     STR_4:
   187   00081E  48                 	db	72	;'H'
   188   00081F  75                 	db	117	;'u'
   189   000820  6D                 	db	109	;'m'
   190   000821  3A                 	db	58	;':'
   191   000822  00                 	db	0
   192   000823  00                 	db	0	; dummy byte at the end
   193   000000                     
   194                           ; #config settings
   195                           
   196                           	psect	cinit
   197   001692                     __pcinit:
   198                           	callstack 0
   199   001692                     start_initialization:
   200                           	callstack 0
   201   001692                     __initialization:
   202                           	callstack 0
   203                           
   204                           ; Initialize objects allocated to COMRAM (1 bytes)
   205                           ; load TBLPTR registers with __pidataCOMRAM
   206   001692  0E9C               	movlw	low __pidataCOMRAM
   207   001694  6EF6               	movwf	tblptrl,c
   208   001696  0E18               	movlw	high __pidataCOMRAM
   209   001698  6EF7               	movwf	tblptrh,c
   210   00169A  0E00               	movlw	low (__pidataCOMRAM shr (0+16))
   211   00169C  6EF8               	movwf	tblptru,c
   212   00169E  0009               	tblrd		*+	;fetch initializer
   213   0016A0  CFF5 F03B          	movff	tablat,__pdataCOMRAM
   214                           
   215                           ; Clear objects allocated to COMRAM (6 bytes)
   216   0016A4  6A3A               	clrf	(__pbssCOMRAM+5)& (0+255),c
   217   0016A6  6A39               	clrf	(__pbssCOMRAM+4)& (0+255),c
   218   0016A8  6A38               	clrf	(__pbssCOMRAM+3)& (0+255),c
   219   0016AA  6A37               	clrf	(__pbssCOMRAM+2)& (0+255),c
   220   0016AC  6A36               	clrf	(__pbssCOMRAM+1)& (0+255),c
   221   0016AE  6A35               	clrf	__pbssCOMRAM& (0+255),c
   222   0016B0                     end_of_initialization:
   223                           	callstack 0
   224   0016B0                     __end_of__initialization:
   225                           	callstack 0
   226   0016B0  903C               	bcf	int$flags,0,c	;clear compiler interrupt flag (level 1)
   227   0016B2  923C               	bcf	int$flags,1,c	;clear compiler interrupt flag (level 2)
   228   0016B4  0E00               	movlw	low (__Lmediumconst shr (0+16))
   229   0016B6  6EF8               	movwf	tblptru,c
   230   0016B8  0100               	movlb	0
   231   0016BA  EFA2  F006         	goto	_main	;jump to C main() function
   232                           
   233                           	psect	bssCOMRAM
   234   000035                     __pbssCOMRAM:
   235                           	callstack 0
   236   000035                     _IniFlag:
   237                           	callstack 0
   238   000035                     	ds	2
   239   000037                     _TempEEPROM:
   240                           	callstack 0
   241   000037                     	ds	1
   242   000038                     _Che:
   243                           	callstack 0
   244   000038                     	ds	1
   245   000039                     _Hum:
   246                           	callstack 0
   247   000039                     	ds	1
   248   00003A                     _Temp:
   249                           	callstack 0
   250   00003A                     	ds	1
   251                           
   252                           	psect	dataCOMRAM
   253   00003B                     __pdataCOMRAM:
   254                           	callstack 0
   255   00003B                     _interfaz:
   256                           	callstack 0
   257   00003B                     	ds	1
   258                           
   259                           	psect	cstackCOMRAM
   260   000001                     __pcstackCOMRAM:
   261                           	callstack 0
   262   000001                     ??i2_RetardoLCD:
   263   000001                     ?i2___wmul:
   264                           	callstack 0
   265   000001                     ?i2___awdiv:
   266                           	callstack 0
   267   000001                     ?i2___lwdiv:
   268                           	callstack 0
   269   000001                     ?i2___lwmod:
   270                           	callstack 0
   271   000001                     i2Transmitir@BufferT:
   272                           	callstack 0
   273   000001                     i2___lbdiv@divisor:
   274                           	callstack 0
   275   000001                     i2___lbmod@divisor:
   276                           	callstack 0
   277   000001                     i2___wmul@multiplier:
   278                           	callstack 0
   279   000001                     i2___awdiv@dividend:
   280                           	callstack 0
   281   000001                     i2___lwdiv@dividend:
   282                           	callstack 0
   283   000001                     i2___lwmod@dividend:
   284                           	callstack 0
   285                           
   286                           ; 2 bytes @ 0x0
   287   000001                     	ds	1
   288   000002                     i2RetardoLCD@a:
   289                           	callstack 0
   290   000002                     i2___lbdiv@dividend:
   291                           	callstack 0
   292   000002                     i2___lbmod@dividend:
   293                           	callstack 0
   294                           
   295                           ; 1 bytes @ 0x1
   296   000002                     	ds	1
   297   000003                     ??i2_EnviaDato:
   298   000003                     i2___lbdiv@counter:
   299                           	callstack 0
   300   000003                     i2___lbmod@counter:
   301                           	callstack 0
   302   000003                     i2___wmul@multiplicand:
   303                           	callstack 0
   304   000003                     i2___awdiv@divisor:
   305                           	callstack 0
   306   000003                     i2___lwdiv@divisor:
   307                           	callstack 0
   308   000003                     i2___lwmod@divisor:
   309                           	callstack 0
   310                           
   311                           ; 2 bytes @ 0x2
   312   000003                     	ds	1
   313   000004                     i2EnviaDato@a:
   314                           	callstack 0
   315   000004                     i2___lbdiv@quotient:
   316                           	callstack 0
   317   000004                     i2___lbmod@rem:
   318                           	callstack 0
   319                           
   320                           ; 1 bytes @ 0x3
   321   000004                     	ds	1
   322   000005                     i2EscribeLCD_c@a:
   323                           	callstack 0
   324   000005                     i2DireccionaLCD@a:
   325                           	callstack 0
   326   000005                     i2___awdiv@counter:
   327                           	callstack 0
   328   000005                     i2___lwmod@counter:
   329                           	callstack 0
   330   000005                     i2___wmul@product:
   331                           	callstack 0
   332   000005                     i2___lwdiv@quotient:
   333                           	callstack 0
   334                           
   335                           ; 2 bytes @ 0x4
   336   000005                     	ds	1
   337   000006                     i2MensajeLCD_Word@a:
   338                           	callstack 0
   339   000006                     i2___awdiv@sign:
   340                           	callstack 0
   341                           
   342                           ; 1 bytes @ 0x5
   343   000006                     	ds	1
   344   000007                     ??i2_MensajeLCD_Word:
   345   000007                     i2___lwdiv@counter:
   346                           	callstack 0
   347   000007                     i2___awdiv@quotient:
   348                           	callstack 0
   349                           
   350                           ; 2 bytes @ 0x6
   351   000007                     	ds	1
   352   000008                     i2MensajeLCD_Word@i:
   353                           	callstack 0
   354                           
   355                           ; 2 bytes @ 0x7
   356   000008                     	ds	2
   357   00000A                     i2TransmitirDatos@Ent1:
   358                           	callstack 0
   359                           
   360                           ; 2 bytes @ 0x9
   361   00000A                     	ds	2
   362   00000C                     i2TransmitirDatos@Ent2:
   363                           	callstack 0
   364                           
   365                           ; 2 bytes @ 0xB
   366   00000C                     	ds	2
   367   00000E                     ??i2_TransmitirDatos:
   368                           
   369                           ; 1 bytes @ 0xD
   370   00000E                     	ds	2
   371   000010                     i2TransmitirDatos@n:
   372                           	callstack 0
   373                           
   374                           ; 2 bytes @ 0xF
   375   000010                     	ds	2
   376   000012                     i2TransmitirDatos@Simb:
   377                           	callstack 0
   378                           
   379                           ; 2 bytes @ 0x11
   380   000012                     	ds	2
   381   000014                     i2TransmitirDatos@TempC:
   382                           	callstack 0
   383                           
   384                           ; 2 bytes @ 0x13
   385   000014                     	ds	2
   386   000016                     ??_ISR:
   387                           
   388                           ; 1 bytes @ 0x15
   389   000016                     	ds	8
   390   00001E                     ??_RetardoLCD:
   391   00001E                     ?___wmul:
   392                           	callstack 0
   393   00001E                     ?___awdiv:
   394                           	callstack 0
   395   00001E                     ?___lwdiv:
   396                           	callstack 0
   397   00001E                     ?___lwmod:
   398                           	callstack 0
   399   00001E                     ConfiguraLCD@a:
   400                           	callstack 0
   401   00001E                     LeerBit@res:
   402                           	callstack 0
   403   00001E                     Transmitir@BufferT:
   404                           	callstack 0
   405   00001E                     Conversion@canal:
   406                           	callstack 0
   407   00001E                     ___lbdiv@divisor:
   408                           	callstack 0
   409   00001E                     ___lbmod@divisor:
   410                           	callstack 0
   411   00001E                     ColorRGB@val:
   412                           	callstack 0
   413   00001E                     GuardarDatoEnEEPROM@dir:
   414                           	callstack 0
   415   00001E                     leerDatoEnEEPROM@dir:
   416                           	callstack 0
   417   00001E                     ___wmul@multiplier:
   418                           	callstack 0
   419   00001E                     ___awdiv@dividend:
   420                           	callstack 0
   421   00001E                     ___lwdiv@dividend:
   422                           	callstack 0
   423   00001E                     ___lwmod@dividend:
   424                           	callstack 0
   425                           
   426                           ; 2 bytes @ 0x1D
   427   00001E                     	ds	1
   428   00001F                     ??_LeerByte:
   429   00001F                     RetardoLCD@a:
   430                           	callstack 0
   431   00001F                     ___lbdiv@dividend:
   432                           	callstack 0
   433   00001F                     ___lbmod@dividend:
   434                           	callstack 0
   435                           
   436                           ; 1 bytes @ 0x1E
   437   00001F                     	ds	1
   438   000020                     ??_EnviaDato:
   439   000020                     LeerByte@res:
   440                           	callstack 0
   441   000020                     GuardarDatoEnEEPROM@dato:
   442                           	callstack 0
   443   000020                     ___lbdiv@counter:
   444                           	callstack 0
   445   000020                     ___lbmod@counter:
   446                           	callstack 0
   447   000020                     ___wmul@multiplicand:
   448                           	callstack 0
   449   000020                     ___awdiv@divisor:
   450                           	callstack 0
   451   000020                     ___lwdiv@divisor:
   452                           	callstack 0
   453   000020                     ___lwmod@divisor:
   454                           	callstack 0
   455                           
   456                           ; 2 bytes @ 0x1F
   457   000020                     	ds	1
   458   000021                     EnviaDato@a:
   459                           	callstack 0
   460   000021                     LeerByte@i:
   461                           	callstack 0
   462   000021                     ___lbdiv@quotient:
   463                           	callstack 0
   464   000021                     ___lbmod@rem:
   465                           	callstack 0
   466                           
   467                           ; 1 bytes @ 0x20
   468   000021                     	ds	1
   469   000022                     ??_LeerHT11:
   470   000022                     EscribeLCD_c@a:
   471                           	callstack 0
   472   000022                     DireccionaLCD@a:
   473                           	callstack 0
   474   000022                     ___awdiv@counter:
   475                           	callstack 0
   476   000022                     ___lwmod@counter:
   477                           	callstack 0
   478   000022                     ___wmul@product:
   479                           	callstack 0
   480   000022                     ___lwdiv@quotient:
   481                           	callstack 0
   482                           
   483                           ; 2 bytes @ 0x21
   484   000022                     	ds	1
   485   000023                     MensajeLCD_Word@a:
   486                           	callstack 0
   487   000023                     LeerHT11@contr:
   488                           	callstack 0
   489   000023                     ___awdiv@sign:
   490                           	callstack 0
   491                           
   492                           ; 1 bytes @ 0x22
   493   000023                     	ds	1
   494   000024                     ??_MensajeLCD_Word:
   495   000024                     ___lwdiv@counter:
   496                           	callstack 0
   497   000024                     ___awdiv@quotient:
   498                           	callstack 0
   499                           
   500                           ; 2 bytes @ 0x23
   501   000024                     	ds	1
   502   000025                     MensajeLCD_Word@i:
   503                           	callstack 0
   504                           
   505                           ; 2 bytes @ 0x24
   506   000025                     	ds	2
   507   000027                     TransmitirDatos@Ent1:
   508                           	callstack 0
   509                           
   510                           ; 2 bytes @ 0x26
   511   000027                     	ds	2
   512   000029                     TransmitirDatos@Ent2:
   513                           	callstack 0
   514                           
   515                           ; 2 bytes @ 0x28
   516   000029                     	ds	2
   517   00002B                     ??_TransmitirDatos:
   518                           
   519                           ; 1 bytes @ 0x2A
   520   00002B                     	ds	2
   521   00002D                     TransmitirDatos@n:
   522                           	callstack 0
   523                           
   524                           ; 2 bytes @ 0x2C
   525   00002D                     	ds	2
   526   00002F                     TransmitirDatos@Simb:
   527                           	callstack 0
   528                           
   529                           ; 2 bytes @ 0x2E
   530   00002F                     	ds	2
   531   000031                     TransmitirDatos@TempC:
   532                           	callstack 0
   533                           
   534                           ; 2 bytes @ 0x30
   535   000031                     	ds	2
   536   000033                     ??_main:
   537                           
   538                           ; 1 bytes @ 0x32
   539   000033                     	ds	2
   540                           
   541 ;;
   542 ;;Main: autosize = 0, tempsize = 2, incstack = 0, save=0
   543 ;;
   544 ;; *************** function _main *****************
   545 ;; Defined at:
   546 ;;		line 37 in file "Laboratorio5.c"
   547 ;; Parameters:    Size  Location     Type
   548 ;;		None
   549 ;; Auto vars:     Size  Location     Type
   550 ;;		None
   551 ;; Return value:  Size  Location     Type
   552 ;;                  1    wreg      void 
   553 ;; Registers used:
   554 ;;		wreg, status,2, status,0, tblptrl, tblptrh, tblptru, prodl, prodh, cstack
   555 ;; Tracked objects:
   556 ;;		On entry : 0/0
   557 ;;		On exit  : 0/0
   558 ;;		Unchanged: 0/0
   559 ;; Data sizes:     COMRAM   BANK0   BANK1   BANK2   BANK3   BANK4   BANK5   BANK6   BANK7
   560 ;;      Params:         0       0       0       0       0       0       0       0       0
   561 ;;      Locals:         0       0       0       0       0       0       0       0       0
   562 ;;      Temps:          2       0       0       0       0       0       0       0       0
   563 ;;      Totals:         2       0       0       0       0       0       0       0       0
   564 ;;Total ram usage:        2 bytes
   565 ;; Hardware stack levels required when called: 11
   566 ;; This function calls:
   567 ;;		_BorraLCD
   568 ;;		_ColorRGB
   569 ;;		_ConfiguraLCD
   570 ;;		_Conversion
   571 ;;		_DireccionaLCD
   572 ;;		_EscribeLCD_c
   573 ;;		_GuardarDatoEnEEPROM
   574 ;;		_InicializaLCD
   575 ;;		_LeerHT11
   576 ;;		_MensajeLCD_Word
   577 ;;		_TransmitirDatos
   578 ;;		___lbdiv
   579 ;;		___lbmod
   580 ;;		_leerDatoEnEEPROM
   581 ;; This function is called by:
   582 ;;		Startup code after reset
   583 ;; This function uses a non-reentrant model
   584 ;;
   585                           
   586                           	psect	text0
   587   000D44                     __ptext0:
   588                           	callstack 0
   589   000D44                     _main:
   590                           	callstack 20
   591                           
   592                           ;Laboratorio5.c: 40: OSCCON = 0b01110000;
   593                           
   594                           ;incstack = 0
   595   000D44  0E70               	movlw	112
   596   000D46  6ED3               	movwf	211,c	;volatile
   597                           
   598                           ;Laboratorio5.c: 41: _delay((unsigned long)((1)*(8000000/4000.0)));
   599   000D48  0E03               	movlw	3
   600   000D4A  6E33               	movwf	??_main^0,c
   601   000D4C  0E98               	movlw	152
   602   000D4E                     u1577:
   603   000D4E  2EE8               	decfsz	wreg,f,c
   604   000D50  D7FE               	bra	u1577
   605   000D52  2E33               	decfsz	??_main^0,f,c
   606   000D54  D7FC               	bra	u1577
   607                           
   608                           ;Laboratorio5.c: 42: LATC2 = 0;
   609   000D56  948B               	bcf	3979,2,c	;volatile
   610                           
   611                           ;Laboratorio5.c: 43: TXSTA = 0b00100000;
   612   000D58  0E20               	movlw	32
   613   000D5A  6EAC               	movwf	172,c	;volatile
   614                           
   615                           ;Laboratorio5.c: 44: RCSTA = 0b10010000;
   616   000D5C  0E90               	movlw	144
   617   000D5E  6EAB               	movwf	171,c	;volatile
   618                           
   619                           ;Laboratorio5.c: 45: BAUDCON = 0b00000000;
   620   000D60  0E00               	movlw	0
   621   000D62  6EB8               	movwf	184,c	;volatile
   622                           
   623                           ;Laboratorio5.c: 47: SPBRG = 12;
   624   000D64  0E0C               	movlw	12
   625   000D66  6EAF               	movwf	175,c	;volatile
   626                           
   627                           ;Laboratorio5.c: 49: ADCON0 = 0b00000001;
   628   000D68  0E01               	movlw	1
   629   000D6A  6EC2               	movwf	194,c	;volatile
   630                           
   631                           ;Laboratorio5.c: 50: ADCON1 = 13;
   632   000D6C  0E0D               	movlw	13
   633   000D6E  6EC1               	movwf	193,c	;volatile
   634                           
   635                           ;Laboratorio5.c: 51: ADCON2 = 0b10001000;
   636   000D70  0E88               	movlw	136
   637   000D72  6EC0               	movwf	192,c	;volatile
   638                           
   639                           ;Laboratorio5.c: 55: TRISB = 0;
   640   000D74  0E00               	movlw	0
   641   000D76  6E93               	movwf	147,c	;volatile
   642                           
   643                           ;Laboratorio5.c: 56: TRISD = 0;
   644   000D78  0E00               	movlw	0
   645   000D7A  6E95               	movwf	149,c	;volatile
   646                           
   647                           ;Laboratorio5.c: 57: TRISA = 0b00000001;
   648   000D7C  0E01               	movlw	1
   649   000D7E  6E92               	movwf	146,c	;volatile
   650                           
   651                           ;Laboratorio5.c: 58: TRISC = 0b11000111;
   652   000D80  0EC7               	movlw	199
   653   000D82  6E94               	movwf	148,c	;volatile
   654                           
   655                           ;Laboratorio5.c: 59: RBPU = 0;
   656   000D84  9EF1               	bcf	4081,7,c	;volatile
   657                           
   658                           ;Laboratorio5.c: 61: TempEEPROM = leerDatoEnEEPROM(0);
   659   000D86  0E00               	movlw	0
   660   000D88  6E1F               	movwf	(leerDatoEnEEPROM@dir+1)^0,c
   661   000D8A  0E00               	movlw	0
   662   000D8C  6E1E               	movwf	leerDatoEnEEPROM@dir^0,c
   663   000D8E  EC29  F00C         	call	_leerDatoEnEEPROM	;wreg free
   664   000D92  6E37               	movwf	_TempEEPROM^0,c
   665                           
   666                           ;Laboratorio5.c: 63: InicializaLCD();
   667   000D94  EC6E  F008         	call	_InicializaLCD	;wreg free
   668                           
   669                           ;Laboratorio5.c: 64: ConfiguraLCD(4);
   670   000D98  0E04               	movlw	4
   671   000D9A  ECD3  F00B         	call	_ConfiguraLCD
   672                           
   673                           ;Laboratorio5.c: 66: T0CON=0b10000011;
   674   000D9E  0E83               	movlw	131
   675   000DA0  6ED5               	movwf	213,c	;volatile
   676                           
   677                           ;Laboratorio5.c: 67: TMR0IF=0;
   678   000DA2  94F2               	bcf	4082,2,c	;volatile
   679                           
   680                           ;Laboratorio5.c: 68: TMR0=3036;
   681   000DA4  0E0B               	movlw	11
   682   000DA6  6ED7               	movwf	215,c	;volatile
   683   000DA8  0EDC               	movlw	220
   684   000DAA  6ED6               	movwf	214,c	;volatile
   685                           
   686                           ;Laboratorio5.c: 69: TMR0IE=1;
   687   000DAC  8AF2               	bsf	4082,5,c	;volatile
   688                           
   689                           ;Laboratorio5.c: 70: GIE=1;
   690   000DAE  8EF2               	bsf	4082,7,c	;volatile
   691                           
   692                           ;Laboratorio5.c: 71: TMR0ON=1;
   693   000DB0  8ED5               	bsf	4053,7,c	;volatile
   694                           
   695                           ;Laboratorio5.c: 74: BorraLCD();
   696   000DB2  EC0B  F00C         	call	_BorraLCD	;wreg free
   697                           
   698                           ;Laboratorio5.c: 76: if (TempEEPROM != 0xFF) {
   699   000DB6  2837               	incf	_TempEEPROM^0,w,c
   700   000DB8  B4D8               	btfsc	status,2,c
   701   000DBA  D028               	goto	l2592
   702                           
   703                           ;Laboratorio5.c: 77: MensajeLCD_Word("Ultima temp:");
   704   000DBC  0E01               	movlw	low STR_1
   705   000DBE  6E23               	movwf	MensajeLCD_Word@a^0,c
   706   000DC0  EC21  F00A         	call	_MensajeLCD_Word	;wreg free
   707                           
   708                           ;Laboratorio5.c: 78: DireccionaLCD(192);
   709   000DC4  0EC0               	movlw	192
   710   000DC6  ECEA  F00B         	call	_DireccionaLCD
   711                           
   712                           ;Laboratorio5.c: 79: EscribeLCD_c(TempEEPROM / 10 + 48);
   713   000DCA  0E0A               	movlw	10
   714   000DCC  6E1E               	movwf	___lbdiv@divisor^0,c
   715   000DCE  5037               	movf	_TempEEPROM^0,w,c
   716   000DD0  ECF7  F00A         	call	___lbdiv
   717   000DD4  0F30               	addlw	48
   718   000DD6  ECDF  F00B         	call	_EscribeLCD_c
   719                           
   720                           ;Laboratorio5.c: 80: EscribeLCD_c(TempEEPROM % 10 + 48);
   721   000DDA  0E0A               	movlw	10
   722   000DDC  6E1E               	movwf	___lbmod@divisor^0,c
   723   000DDE  5037               	movf	_TempEEPROM^0,w,c
   724   000DE0  EC5F  F00B         	call	___lbmod
   725   000DE4  0F30               	addlw	48
   726   000DE6  ECDF  F00B         	call	_EscribeLCD_c
   727                           
   728                           ;Laboratorio5.c: 81: EscribeLCD_c('C');
   729   000DEA  0E43               	movlw	67
   730   000DEC  ECDF  F00B         	call	_EscribeLCD_c
   731                           
   732                           ;Laboratorio5.c: 82: _delay((unsigned long)((2000)*(8000000/4000.0)));
   733   000DF0  0E15               	movlw	21
   734   000DF2  6E34               	movwf	(??_main+1)^0,c
   735   000DF4  0E4B               	movlw	75
   736   000DF6  6E33               	movwf	??_main^0,c
   737   000DF8  0EBE               	movlw	190
   738   000DFA                     u1587:
   739   000DFA  2EE8               	decfsz	wreg,f,c
   740   000DFC  D7FE               	bra	u1587
   741   000DFE  2E33               	decfsz	??_main^0,f,c
   742   000E00  D7FC               	bra	u1587
   743   000E02  2E34               	decfsz	(??_main+1)^0,f,c
   744   000E04  D7FA               	bra	u1587
   745   000E06  D000               	nop2	
   746                           
   747                           ;Laboratorio5.c: 83: BorraLCD();
   748   000E08  EC0B  F00C         	call	_BorraLCD	;wreg free
   749   000E0C                     l2592:
   750                           
   751                           ;Laboratorio5.c: 84: };Laboratorio5.c: 86: MensajeLCD_Word("Iniciando");
   752   000E0C  0E0E               	movlw	low STR_2
   753   000E0E  6E23               	movwf	MensajeLCD_Word@a^0,c
   754   000E10  EC21  F00A         	call	_MensajeLCD_Word	;wreg free
   755                           
   756                           ;Laboratorio5.c: 87: _delay((unsigned long)((500)*(8000000/4000.0)));
   757   000E14  0E06               	movlw	6
   758   000E16  6E34               	movwf	(??_main+1)^0,c
   759   000E18  0E13               	movlw	19
   760   000E1A  6E33               	movwf	??_main^0,c
   761   000E1C  0EAE               	movlw	174
   762   000E1E                     u1597:
   763   000E1E  2EE8               	decfsz	wreg,f,c
   764   000E20  D7FE               	bra	u1597
   765   000E22  2E33               	decfsz	??_main^0,f,c
   766   000E24  D7FC               	bra	u1597
   767   000E26  2E34               	decfsz	(??_main+1)^0,f,c
   768   000E28  D7FA               	bra	u1597
   769                           
   770                           ;Laboratorio5.c: 88: EscribeLCD_c(46);
   771   000E2A  0E2E               	movlw	46
   772   000E2C  ECDF  F00B         	call	_EscribeLCD_c
   773                           
   774                           ;Laboratorio5.c: 89: _delay((unsigned long)((500)*(8000000/4000.0)));
   775   000E30  0E06               	movlw	6
   776   000E32  6E34               	movwf	(??_main+1)^0,c
   777   000E34  0E13               	movlw	19
   778   000E36  6E33               	movwf	??_main^0,c
   779   000E38  0EAE               	movlw	174
   780   000E3A                     u1607:
   781   000E3A  2EE8               	decfsz	wreg,f,c
   782   000E3C  D7FE               	bra	u1607
   783   000E3E  2E33               	decfsz	??_main^0,f,c
   784   000E40  D7FC               	bra	u1607
   785   000E42  2E34               	decfsz	(??_main+1)^0,f,c
   786   000E44  D7FA               	bra	u1607
   787                           
   788                           ;Laboratorio5.c: 90: EscribeLCD_c(46);
   789   000E46  0E2E               	movlw	46
   790   000E48  ECDF  F00B         	call	_EscribeLCD_c
   791                           
   792                           ;Laboratorio5.c: 91: _delay((unsigned long)((500)*(8000000/4000.0)));
   793   000E4C  0E06               	movlw	6
   794   000E4E  6E34               	movwf	(??_main+1)^0,c
   795   000E50  0E13               	movlw	19
   796   000E52  6E33               	movwf	??_main^0,c
   797   000E54  0EAE               	movlw	174
   798   000E56                     u1617:
   799   000E56  2EE8               	decfsz	wreg,f,c
   800   000E58  D7FE               	bra	u1617
   801   000E5A  2E33               	decfsz	??_main^0,f,c
   802   000E5C  D7FC               	bra	u1617
   803   000E5E  2E34               	decfsz	(??_main+1)^0,f,c
   804   000E60  D7FA               	bra	u1617
   805                           
   806                           ;Laboratorio5.c: 92: EscribeLCD_c(46);
   807   000E62  0E2E               	movlw	46
   808   000E64  ECDF  F00B         	call	_EscribeLCD_c
   809                           
   810                           ;Laboratorio5.c: 93: _delay((unsigned long)((500)*(8000000/4000.0)));
   811   000E68  0E06               	movlw	6
   812   000E6A  6E34               	movwf	(??_main+1)^0,c
   813   000E6C  0E13               	movlw	19
   814   000E6E  6E33               	movwf	??_main^0,c
   815   000E70  0EAE               	movlw	174
   816   000E72                     u1627:
   817   000E72  2EE8               	decfsz	wreg,f,c
   818   000E74  D7FE               	bra	u1627
   819   000E76  2E33               	decfsz	??_main^0,f,c
   820   000E78  D7FC               	bra	u1627
   821   000E7A  2E34               	decfsz	(??_main+1)^0,f,c
   822   000E7C  D7FA               	bra	u1627
   823                           
   824                           ;Laboratorio5.c: 94: BorraLCD();
   825   000E7E  EC0B  F00C         	call	_BorraLCD	;wreg free
   826   000E82                     l2604:
   827                           
   828                           ;Laboratorio5.c: 98: _delay((unsigned long)((500)*(8000000/4000.0)));
   829   000E82  0E06               	movlw	6
   830   000E84  6E34               	movwf	(??_main+1)^0,c
   831   000E86  0E13               	movlw	19
   832   000E88  6E33               	movwf	??_main^0,c
   833   000E8A  0EAE               	movlw	174
   834   000E8C                     u1637:
   835   000E8C  2EE8               	decfsz	wreg,f,c
   836   000E8E  D7FE               	bra	u1637
   837   000E90  2E33               	decfsz	??_main^0,f,c
   838   000E92  D7FC               	bra	u1637
   839   000E94  2E34               	decfsz	(??_main+1)^0,f,c
   840   000E96  D7FA               	bra	u1637
   841                           
   842                           ;Laboratorio5.c: 100: _delay((unsigned long)((500)*(8000000/4000.0)));
   843   000E98  0E06               	movlw	6
   844   000E9A  6E34               	movwf	(??_main+1)^0,c
   845   000E9C  0E13               	movlw	19
   846   000E9E  6E33               	movwf	??_main^0,c
   847   000EA0  0EAE               	movlw	174
   848   000EA2                     u1647:
   849   000EA2  2EE8               	decfsz	wreg,f,c
   850   000EA4  D7FE               	bra	u1647
   851   000EA6  2E33               	decfsz	??_main^0,f,c
   852   000EA8  D7FC               	bra	u1647
   853   000EAA  2E34               	decfsz	(??_main+1)^0,f,c
   854   000EAC  D7FA               	bra	u1647
   855                           
   856                           ;Laboratorio5.c: 102: LeerHT11();
   857   000EAE  ECCF  F009         	call	_LeerHT11	;wreg free
   858                           
   859                           ;Laboratorio5.c: 103: IniFlag = 1;
   860   000EB2  0E00               	movlw	0
   861   000EB4  6E36               	movwf	(_IniFlag+1)^0,c
   862   000EB6  0E01               	movlw	1
   863   000EB8  6E35               	movwf	_IniFlag^0,c
   864                           
   865                           ;Laboratorio5.c: 104: GuardarDatoEnEEPROM(0, Temp);
   866   000EBA  0E00               	movlw	0
   867   000EBC  6E1F               	movwf	(GuardarDatoEnEEPROM@dir+1)^0,c
   868   000EBE  0E00               	movlw	0
   869   000EC0  6E1E               	movwf	GuardarDatoEnEEPROM@dir^0,c
   870   000EC2  C03A  F020         	movff	_Temp,GuardarDatoEnEEPROM@dato
   871   000EC6  EC9C  F00B         	call	_GuardarDatoEnEEPROM	;wreg free
   872                           
   873                           ;Laboratorio5.c: 105: ColorRGB(Temp);
   874   000ECA  C03A  F01E         	movff	_Temp,ColorRGB@val
   875   000ECE  6A1F               	clrf	(ColorRGB@val+1)^0,c
   876   000ED0  EC87  F007         	call	_ColorRGB	;wreg free
   877                           
   878                           ;Laboratorio5.c: 108: TransmitirDatos(RC0, RC1);
   879   000ED4  A082               	btfss	3970,0,c	;volatile
   880   000ED6  D002               	goto	u1460
   881   000ED8  0E01               	movlw	1
   882   000EDA  D001               	goto	u1470
   883   000EDC                     u1460:
   884   000EDC  0E00               	movlw	0
   885   000EDE                     u1470:
   886   000EDE  6E27               	movwf	TransmitirDatos@Ent1^0,c
   887   000EE0  6A28               	clrf	(TransmitirDatos@Ent1+1)^0,c
   888   000EE2  A282               	btfss	3970,1,c	;volatile
   889   000EE4  D002               	goto	u1480
   890   000EE6  0E01               	movlw	1
   891   000EE8  D001               	goto	u1490
   892   000EEA                     u1480:
   893   000EEA  0E00               	movlw	0
   894   000EEC                     u1490:
   895   000EEC  6E29               	movwf	TransmitirDatos@Ent2^0,c
   896   000EEE  6A2A               	clrf	(TransmitirDatos@Ent2+1)^0,c
   897   000EF0  EC12  F004         	call	_TransmitirDatos	;wreg free
   898                           
   899                           ;Laboratorio5.c: 110: Conversion(0);
   900   000EF4  0E00               	movlw	0
   901   000EF6  EC15  F00C         	call	_Conversion
   902                           
   903                           ;Laboratorio5.c: 111: RD3 = (ADRES <= 511) ? 0 : 1;
   904   000EFA  0E00               	movlw	0
   905   000EFC  5CC3               	subwf	195,w,c	;volatile
   906   000EFE  0E02               	movlw	2
   907   000F00  58C4               	subwfb	196,w,c	;volatile
   908   000F02  A0D8               	btfss	status,0,c
   909   000F04  D002               	goto	u1500
   910   000F06  8683               	bsf	3971,3,c	;volatile
   911   000F08  D7BC               	goto	l2604
   912   000F0A                     u1500:
   913   000F0A  9683               	bcf	3971,3,c	;volatile
   914   000F0C  D7BA               	goto	l2604
   915   000F0E                     __end_of_main:
   916                           	callstack 0
   917                           
   918 ;; *************** function _leerDatoEnEEPROM *****************
   919 ;; Defined at:
   920 ;;		line 306 in file "Laboratorio5.c"
   921 ;; Parameters:    Size  Location     Type
   922 ;;  dir             2   29[COMRAM] unsigned int 
   923 ;; Auto vars:     Size  Location     Type
   924 ;;		None
   925 ;; Return value:  Size  Location     Type
   926 ;;                  1    wreg      unsigned char 
   927 ;; Registers used:
   928 ;;		wreg, status,2
   929 ;; Tracked objects:
   930 ;;		On entry : 0/0
   931 ;;		On exit  : 0/0
   932 ;;		Unchanged: 0/0
   933 ;; Data sizes:     COMRAM   BANK0   BANK1   BANK2   BANK3   BANK4   BANK5   BANK6   BANK7
   934 ;;      Params:         2       0       0       0       0       0       0       0       0
   935 ;;      Locals:         0       0       0       0       0       0       0       0       0
   936 ;;      Temps:          0       0       0       0       0       0       0       0       0
   937 ;;      Totals:         2       0       0       0       0       0       0       0       0
   938 ;;Total ram usage:        2 bytes
   939 ;; Hardware stack levels used: 1
   940 ;; Hardware stack levels required when called: 6
   941 ;; This function calls:
   942 ;;		Nothing
   943 ;; This function is called by:
   944 ;;		_main
   945 ;; This function uses a non-reentrant model
   946 ;;
   947                           
   948                           	psect	text1
   949   001852                     __ptext1:
   950                           	callstack 0
   951   001852                     _leerDatoEnEEPROM:
   952                           	callstack 24
   953                           
   954                           ;Laboratorio5.c: 307: EEADR = dir;
   955                           
   956                           ;incstack = 0
   957   001852  C01E  FFA9         	movff	leerDatoEnEEPROM@dir,4009	;volatile
   958                           
   959                           ;Laboratorio5.c: 308: EEPGD = 0;
   960   001856  9EA6               	bcf	4006,7,c	;volsfr
   961                           
   962                           ;Laboratorio5.c: 309: CFGS = 0;
   963   001858  9CA6               	bcf	4006,6,c	;volsfr
   964                           
   965                           ;Laboratorio5.c: 310: RD = 1;
   966   00185A  80A6               	bsf	4006,0,c	;volsfr
   967                           
   968                           ;Laboratorio5.c: 312: return EEDATA;
   969   00185C  50A8               	movf	168,w,c	;volatile
   970   00185E  0012               	return		;funcret
   971   001860                     __end_of_leerDatoEnEEPROM:
   972                           	callstack 0
   973                           
   974 ;; *************** function _TransmitirDatos *****************
   975 ;; Defined at:
   976 ;;		line 175 in file "Laboratorio5.c"
   977 ;; Parameters:    Size  Location     Type
   978 ;;  Ent1            2   38[COMRAM] unsigned int 
   979 ;;  Ent2            2   40[COMRAM] unsigned int 
   980 ;; Auto vars:     Size  Location     Type
   981 ;;  TempC           2   48[COMRAM] unsigned int 
   982 ;;  Simb            2   46[COMRAM] unsigned int 
   983 ;;  n               2   44[COMRAM] unsigned int 
   984 ;;  HumC            2    0        unsigned int 
   985 ;; Return value:  Size  Location     Type
   986 ;;                  1    wreg      void 
   987 ;; Registers used:
   988 ;;		wreg, status,2, status,0, tblptrl, tblptrh, tblptru, prodl, prodh, cstack
   989 ;; Tracked objects:
   990 ;;		On entry : 0/0
   991 ;;		On exit  : 0/0
   992 ;;		Unchanged: 0/0
   993 ;; Data sizes:     COMRAM   BANK0   BANK1   BANK2   BANK3   BANK4   BANK5   BANK6   BANK7
   994 ;;      Params:         4       0       0       0       0       0       0       0       0
   995 ;;      Locals:         6       0       0       0       0       0       0       0       0
   996 ;;      Temps:          2       0       0       0       0       0       0       0       0
   997 ;;      Totals:        12       0       0       0       0       0       0       0       0
   998 ;;Total ram usage:       12 bytes
   999 ;; Hardware stack levels used: 1
  1000 ;; Hardware stack levels required when called: 10
  1001 ;; This function calls:
  1002 ;;		_BorraLCD
  1003 ;;		_DireccionaLCD
  1004 ;;		_EscribeLCD_c
  1005 ;;		_MensajeLCD_Word
  1006 ;;		_Transmitir
  1007 ;;		___awdiv
  1008 ;;		___lbdiv
  1009 ;;		___lbmod
  1010 ;;		___lwdiv
  1011 ;;		___lwmod
  1012 ;;		___wmul
  1013 ;; This function is called by:
  1014 ;;		_main
  1015 ;; This function uses a non-reentrant model
  1016 ;;
  1017                           
  1018                           	psect	text2
  1019   000824                     __ptext2:
  1020                           	callstack 0
  1021   000824                     _TransmitirDatos:
  1022                           	callstack 20
  1023                           
  1024                           ;Laboratorio5.c: 176: unsigned int n = Ent1 * 10 + Ent2, TempC = Temp, HumC = Hum;
  1025                           
  1026                           ;incstack = 0
  1027   000824  C027  F01E         	movff	TransmitirDatos@Ent1,___wmul@multiplier
  1028   000828  C028  F01F         	movff	TransmitirDatos@Ent1+1,___wmul@multiplier+1
  1029   00082C  0E00               	movlw	0
  1030   00082E  6E21               	movwf	(___wmul@multiplicand+1)^0,c
  1031   000830  0E0A               	movlw	10
  1032   000832  6E20               	movwf	___wmul@multiplicand^0,c
  1033   000834  EC89  F00B         	call	___wmul	;wreg free
  1034   000838  5029               	movf	TransmitirDatos@Ent2^0,w,c
  1035   00083A  241E               	addwf	?___wmul^0,w,c
  1036   00083C  6E2D               	movwf	TransmitirDatos@n^0,c
  1037   00083E  502A               	movf	(TransmitirDatos@Ent2+1)^0,w,c
  1038   000840  201F               	addwfc	(?___wmul+1)^0,w,c
  1039   000842  6E2E               	movwf	(TransmitirDatos@n+1)^0,c
  1040   000844  C03A  F031         	movff	_Temp,TransmitirDatos@TempC
  1041   000848  6A32               	clrf	(TransmitirDatos@TempC+1)^0,c
  1042                           
  1043                           ;Laboratorio5.c: 177: unsigned int Simb = 67;
  1044   00084A  0E00               	movlw	0
  1045   00084C  6E30               	movwf	(TransmitirDatos@Simb+1)^0,c
  1046   00084E  0E43               	movlw	67
  1047   000850  6E2F               	movwf	TransmitirDatos@Simb^0,c
  1048                           
  1049                           ;Laboratorio5.c: 178: BorraLCD();
  1050   000852  EC0B  F00C         	call	_BorraLCD	;wreg free
  1051                           
  1052                           ;Laboratorio5.c: 179: switch (n) {
  1053   000856  D03E               	goto	l2380
  1054   000858                     l245:
  1055                           
  1056                           ;Laboratorio5.c: 181: TempC = Temp;
  1057   000858  C03A  F031         	movff	_Temp,TransmitirDatos@TempC
  1058   00085C  6A32               	clrf	(TransmitirDatos@TempC+1)^0,c
  1059                           
  1060                           ;Laboratorio5.c: 182: Simb = 67;
  1061   00085E  0E00               	movlw	0
  1062   000860  6E30               	movwf	(TransmitirDatos@Simb+1)^0,c
  1063   000862  0E43               	movlw	67
  1064   000864  D035               	goto	L3
  1065   000866                     l2366:
  1066                           
  1067                           ;Laboratorio5.c: 185: TempC = Temp + 273;
  1068   000866  0E11               	movlw	17
  1069   000868  243A               	addwf	_Temp^0,w,c
  1070   00086A  6E31               	movwf	TransmitirDatos@TempC^0,c
  1071   00086C  6A32               	clrf	(TransmitirDatos@TempC+1)^0,c
  1072   00086E  0E01               	movlw	1
  1073   000870  2232               	addwfc	(TransmitirDatos@TempC+1)^0,f,c
  1074                           
  1075                           ;Laboratorio5.c: 186: Simb = 75;
  1076   000872  0E00               	movlw	0
  1077   000874  6E30               	movwf	(TransmitirDatos@Simb+1)^0,c
  1078   000876  0E4B               	movlw	75
  1079   000878  D02B               	goto	L3
  1080   00087A                     l2370:
  1081                           
  1082                           ;Laboratorio5.c: 189: TempC = Temp * 9 / 5 + 492;
  1083   00087A  503A               	movf	_Temp^0,w,c
  1084   00087C  0D09               	mullw	9
  1085   00087E  CFF3 F01E          	movff	prodl,___awdiv@dividend
  1086   000882  CFF4 F01F          	movff	prodh,___awdiv@dividend+1
  1087   000886  0E00               	movlw	0
  1088   000888  6E21               	movwf	(___awdiv@divisor+1)^0,c
  1089   00088A  0E05               	movlw	5
  1090   00088C  6E20               	movwf	___awdiv@divisor^0,c
  1091   00088E  ECBC  F008         	call	___awdiv	;wreg free
  1092   000892  0EEC               	movlw	236
  1093   000894  241E               	addwf	?___awdiv^0,w,c
  1094   000896  6E31               	movwf	TransmitirDatos@TempC^0,c
  1095   000898  0E01               	movlw	1
  1096   00089A  201F               	addwfc	(?___awdiv+1)^0,w,c
  1097   00089C  6E32               	movwf	(TransmitirDatos@TempC+1)^0,c
  1098                           
  1099                           ;Laboratorio5.c: 190: Simb = 82;
  1100   00089E  0E00               	movlw	0
  1101   0008A0  6E30               	movwf	(TransmitirDatos@Simb+1)^0,c
  1102   0008A2  0E52               	movlw	82
  1103   0008A4  D015               	goto	L3
  1104   0008A6                     l2374:
  1105                           
  1106                           ;Laboratorio5.c: 193: TempC = Temp * 9 / 5 + 32;
  1107   0008A6  503A               	movf	_Temp^0,w,c
  1108   0008A8  0D09               	mullw	9
  1109   0008AA  CFF3 F01E          	movff	prodl,___awdiv@dividend
  1110   0008AE  CFF4 F01F          	movff	prodh,___awdiv@dividend+1
  1111   0008B2  0E00               	movlw	0
  1112   0008B4  6E21               	movwf	(___awdiv@divisor+1)^0,c
  1113   0008B6  0E05               	movlw	5
  1114   0008B8  6E20               	movwf	___awdiv@divisor^0,c
  1115   0008BA  ECBC  F008         	call	___awdiv	;wreg free
  1116   0008BE  0E20               	movlw	32
  1117   0008C0  241E               	addwf	?___awdiv^0,w,c
  1118   0008C2  6E31               	movwf	TransmitirDatos@TempC^0,c
  1119   0008C4  0E00               	movlw	0
  1120   0008C6  201F               	addwfc	(?___awdiv+1)^0,w,c
  1121   0008C8  6E32               	movwf	(TransmitirDatos@TempC+1)^0,c
  1122                           
  1123                           ;Laboratorio5.c: 194: Simb = 70;
  1124   0008CA  0E00               	movlw	0
  1125   0008CC  6E30               	movwf	(TransmitirDatos@Simb+1)^0,c
  1126   0008CE  0E46               	movlw	70
  1127   0008D0                     L3:
  1128   0008D0  6E2F               	movwf	TransmitirDatos@Simb^0,c
  1129                           
  1130                           ;Laboratorio5.c: 195: break;
  1131   0008D2  D015               	goto	l2382
  1132   0008D4                     l2380:
  1133   0008D4  C02D  F02B         	movff	TransmitirDatos@n,??_TransmitirDatos
  1134   0008D8  C02E  F02C         	movff	TransmitirDatos@n+1,??_TransmitirDatos+1
  1135                           
  1136                           ; Switch on 2 bytes has been partitioned into a top level switch of size 1, and 1 sub-sw
      +                          itches
  1137                           ; Switch size 1, requested type "simple"
  1138                           ; Number of cases is 1, Range of values is 0 to 0
  1139                           ; switch strategies available:
  1140                           ; Name         Instructions Cycles
  1141                           ; simple_byte            4     3 (average)
  1142                           ;	Chosen strategy is simple_byte
  1143   0008DC  502C               	movf	(??_TransmitirDatos+1)^0,w,c
  1144   0008DE  0A00               	xorlw	0	; case 0
  1145   0008E0  A4D8               	btfss	status,2,c
  1146   0008E2  D00D               	goto	l2382
  1147                           
  1148                           ; Switch size 1, requested type "simple"
  1149                           ; Number of cases is 4, Range of values is 0 to 11
  1150                           ; switch strategies available:
  1151                           ; Name         Instructions Cycles
  1152                           ; simple_byte           13     7 (average)
  1153                           ;	Chosen strategy is simple_byte
  1154   0008E4  502B               	movf	??_TransmitirDatos^0,w,c
  1155   0008E6  0A00               	xorlw	0	; case 0
  1156   0008E8  B4D8               	btfsc	status,2,c
  1157   0008EA  D7B6               	goto	l245
  1158   0008EC  0A01               	xorlw	1	; case 1
  1159   0008EE  B4D8               	btfsc	status,2,c
  1160   0008F0  D7BA               	goto	l2366
  1161   0008F2  0A0B               	xorlw	11	; case 10
  1162   0008F4  B4D8               	btfsc	status,2,c
  1163   0008F6  D7C1               	goto	l2370
  1164   0008F8  0A01               	xorlw	1	; case 11
  1165   0008FA  B4D8               	btfsc	status,2,c
  1166   0008FC  D7D4               	goto	l2374
  1167   0008FE                     l2382:
  1168                           
  1169                           ;Laboratorio5.c: 197: Transmitir('T');
  1170   0008FE  0E54               	movlw	84
  1171   000900  EC3E  F00C         	call	_Transmitir
  1172                           
  1173                           ;Laboratorio5.c: 198: Transmitir('e');
  1174   000904  0E65               	movlw	101
  1175   000906  EC3E  F00C         	call	_Transmitir
  1176                           
  1177                           ;Laboratorio5.c: 199: Transmitir('m');
  1178   00090A  0E6D               	movlw	109
  1179   00090C  EC3E  F00C         	call	_Transmitir
  1180                           
  1181                           ;Laboratorio5.c: 200: Transmitir('p');
  1182   000910  0E70               	movlw	112
  1183   000912  EC3E  F00C         	call	_Transmitir
  1184                           
  1185                           ;Laboratorio5.c: 201: Transmitir(':');
  1186   000916  0E3A               	movlw	58
  1187   000918  EC3E  F00C         	call	_Transmitir
  1188                           
  1189                           ;Laboratorio5.c: 202: Transmitir(' ');
  1190   00091C  0E20               	movlw	32
  1191   00091E  EC3E  F00C         	call	_Transmitir
  1192                           
  1193                           ;Laboratorio5.c: 204: MensajeLCD_Word("Temp:");
  1194   000922  0E18               	movlw	low STR_3
  1195   000924  6E23               	movwf	MensajeLCD_Word@a^0,c
  1196   000926  EC21  F00A         	call	_MensajeLCD_Word	;wreg free
  1197                           
  1198                           ;Laboratorio5.c: 205: if (TempC / 100 > 0) {
  1199   00092A  C031  F01E         	movff	TransmitirDatos@TempC,___lwdiv@dividend
  1200   00092E  C032  F01F         	movff	TransmitirDatos@TempC+1,___lwdiv@dividend+1
  1201   000932  0E00               	movlw	0
  1202   000934  6E21               	movwf	(___lwdiv@divisor+1)^0,c
  1203   000936  0E64               	movlw	100
  1204   000938  6E20               	movwf	___lwdiv@divisor^0,c
  1205   00093A  ECA6  F009         	call	___lwdiv	;wreg free
  1206   00093E  501E               	movf	?___lwdiv^0,w,c
  1207   000940  101F               	iorwf	(?___lwdiv+1)^0,w,c
  1208   000942  B4D8               	btfsc	status,2,c
  1209   000944  D02A               	goto	l250
  1210                           
  1211                           ;Laboratorio5.c: 206: Transmitir(TempC / 100 + 48);
  1212   000946  C031  F01E         	movff	TransmitirDatos@TempC,___lwdiv@dividend
  1213   00094A  C032  F01F         	movff	TransmitirDatos@TempC+1,___lwdiv@dividend+1
  1214   00094E  0E00               	movlw	0
  1215   000950  6E21               	movwf	(___lwdiv@divisor+1)^0,c
  1216   000952  0E64               	movlw	100
  1217   000954  6E20               	movwf	___lwdiv@divisor^0,c
  1218   000956  ECA6  F009         	call	___lwdiv	;wreg free
  1219   00095A  501E               	movf	?___lwdiv^0,w,c
  1220   00095C  0F30               	addlw	48
  1221   00095E  EC3E  F00C         	call	_Transmitir
  1222                           
  1223                           ;Laboratorio5.c: 207: EscribeLCD_c(TempC / 100 + 48);
  1224   000962  C031  F01E         	movff	TransmitirDatos@TempC,___lwdiv@dividend
  1225   000966  C032  F01F         	movff	TransmitirDatos@TempC+1,___lwdiv@dividend+1
  1226   00096A  0E00               	movlw	0
  1227   00096C  6E21               	movwf	(___lwdiv@divisor+1)^0,c
  1228   00096E  0E64               	movlw	100
  1229   000970  6E20               	movwf	___lwdiv@divisor^0,c
  1230   000972  ECA6  F009         	call	___lwdiv	;wreg free
  1231   000976  501E               	movf	?___lwdiv^0,w,c
  1232   000978  0F30               	addlw	48
  1233   00097A  ECDF  F00B         	call	_EscribeLCD_c
  1234                           
  1235                           ;Laboratorio5.c: 208: TempC = TempC % 100;
  1236   00097E  C031  F01E         	movff	TransmitirDatos@TempC,___lwmod@dividend
  1237   000982  C032  F01F         	movff	TransmitirDatos@TempC+1,___lwmod@dividend+1
  1238   000986  0E00               	movlw	0
  1239   000988  6E21               	movwf	(___lwmod@divisor+1)^0,c
  1240   00098A  0E64               	movlw	100
  1241   00098C  6E20               	movwf	___lwmod@divisor^0,c
  1242   00098E  ECB5  F00A         	call	___lwmod	;wreg free
  1243   000992  C01E  F031         	movff	?___lwmod,TransmitirDatos@TempC
  1244   000996  C01F  F032         	movff	?___lwmod+1,TransmitirDatos@TempC+1
  1245   00099A                     l250:
  1246                           
  1247                           ;Laboratorio5.c: 209: };Laboratorio5.c: 210: Transmitir(TempC / 10 + 48);
  1248   00099A  C031  F01E         	movff	TransmitirDatos@TempC,___lwdiv@dividend
  1249   00099E  C032  F01F         	movff	TransmitirDatos@TempC+1,___lwdiv@dividend+1
  1250   0009A2  0E00               	movlw	0
  1251   0009A4  6E21               	movwf	(___lwdiv@divisor+1)^0,c
  1252   0009A6  0E0A               	movlw	10
  1253   0009A8  6E20               	movwf	___lwdiv@divisor^0,c
  1254   0009AA  ECA6  F009         	call	___lwdiv	;wreg free
  1255   0009AE  501E               	movf	?___lwdiv^0,w,c
  1256   0009B0  0F30               	addlw	48
  1257   0009B2  EC3E  F00C         	call	_Transmitir
  1258                           
  1259                           ;Laboratorio5.c: 211: Transmitir(TempC % 10 + 48);
  1260   0009B6  C031  F01E         	movff	TransmitirDatos@TempC,___lwmod@dividend
  1261   0009BA  C032  F01F         	movff	TransmitirDatos@TempC+1,___lwmod@dividend+1
  1262   0009BE  0E00               	movlw	0
  1263   0009C0  6E21               	movwf	(___lwmod@divisor+1)^0,c
  1264   0009C2  0E0A               	movlw	10
  1265   0009C4  6E20               	movwf	___lwmod@divisor^0,c
  1266   0009C6  ECB5  F00A         	call	___lwmod	;wreg free
  1267   0009CA  501E               	movf	?___lwmod^0,w,c
  1268   0009CC  0F30               	addlw	48
  1269   0009CE  EC3E  F00C         	call	_Transmitir
  1270                           
  1271                           ;Laboratorio5.c: 212: Transmitir(167);
  1272   0009D2  0EA7               	movlw	167
  1273   0009D4  EC3E  F00C         	call	_Transmitir
  1274                           
  1275                           ;Laboratorio5.c: 213: Transmitir(Simb);
  1276   0009D8  502F               	movf	TransmitirDatos@Simb^0,w,c
  1277   0009DA  EC3E  F00C         	call	_Transmitir
  1278                           
  1279                           ;Laboratorio5.c: 214: Transmitir(' ');
  1280   0009DE  0E20               	movlw	32
  1281   0009E0  EC3E  F00C         	call	_Transmitir
  1282                           
  1283                           ;Laboratorio5.c: 215: Transmitir('\n');
  1284   0009E4  0E0A               	movlw	10
  1285   0009E6  EC3E  F00C         	call	_Transmitir
  1286                           
  1287                           ;Laboratorio5.c: 216: Transmitir('H');
  1288   0009EA  0E48               	movlw	72
  1289   0009EC  EC3E  F00C         	call	_Transmitir
  1290                           
  1291                           ;Laboratorio5.c: 217: Transmitir('u');
  1292   0009F0  0E75               	movlw	117
  1293   0009F2  EC3E  F00C         	call	_Transmitir
  1294                           
  1295                           ;Laboratorio5.c: 218: Transmitir('m');
  1296   0009F6  0E6D               	movlw	109
  1297   0009F8  EC3E  F00C         	call	_Transmitir
  1298                           
  1299                           ;Laboratorio5.c: 219: Transmitir(':');
  1300   0009FC  0E3A               	movlw	58
  1301   0009FE  EC3E  F00C         	call	_Transmitir
  1302                           
  1303                           ;Laboratorio5.c: 220: Transmitir(' ');
  1304   000A02  0E20               	movlw	32
  1305   000A04  EC3E  F00C         	call	_Transmitir
  1306                           
  1307                           ;Laboratorio5.c: 221: Transmitir(Hum / 10 + 48);
  1308   000A08  0E0A               	movlw	10
  1309   000A0A  6E1E               	movwf	___lbdiv@divisor^0,c
  1310   000A0C  5039               	movf	_Hum^0,w,c
  1311   000A0E  ECF7  F00A         	call	___lbdiv
  1312   000A12  0F30               	addlw	48
  1313   000A14  EC3E  F00C         	call	_Transmitir
  1314                           
  1315                           ;Laboratorio5.c: 222: Transmitir(Hum % 10 + 48);
  1316   000A18  0E0A               	movlw	10
  1317   000A1A  6E1E               	movwf	___lbmod@divisor^0,c
  1318   000A1C  5039               	movf	_Hum^0,w,c
  1319   000A1E  EC5F  F00B         	call	___lbmod
  1320   000A22  0F30               	addlw	48
  1321   000A24  EC3E  F00C         	call	_Transmitir
  1322                           
  1323                           ;Laboratorio5.c: 223: Transmitir(' ');
  1324   000A28  0E20               	movlw	32
  1325   000A2A  EC3E  F00C         	call	_Transmitir
  1326                           
  1327                           ;Laboratorio5.c: 224: Transmitir('%');
  1328   000A2E  0E25               	movlw	37
  1329   000A30  EC3E  F00C         	call	_Transmitir
  1330                           
  1331                           ;Laboratorio5.c: 225: Transmitir('\n');
  1332   000A34  0E0A               	movlw	10
  1333   000A36  EC3E  F00C         	call	_Transmitir
  1334                           
  1335                           ;Laboratorio5.c: 226: Transmitir(' ');
  1336   000A3A  0E20               	movlw	32
  1337   000A3C  EC3E  F00C         	call	_Transmitir
  1338                           
  1339                           ;Laboratorio5.c: 232: EscribeLCD_c(TempC / 10 + 48);
  1340   000A40  C031  F01E         	movff	TransmitirDatos@TempC,___lwdiv@dividend
  1341   000A44  C032  F01F         	movff	TransmitirDatos@TempC+1,___lwdiv@dividend+1
  1342   000A48  0E00               	movlw	0
  1343   000A4A  6E21               	movwf	(___lwdiv@divisor+1)^0,c
  1344   000A4C  0E0A               	movlw	10
  1345   000A4E  6E20               	movwf	___lwdiv@divisor^0,c
  1346   000A50  ECA6  F009         	call	___lwdiv	;wreg free
  1347   000A54  501E               	movf	?___lwdiv^0,w,c
  1348   000A56  0F30               	addlw	48
  1349   000A58  ECDF  F00B         	call	_EscribeLCD_c
  1350                           
  1351                           ;Laboratorio5.c: 233: EscribeLCD_c(TempC % 10 + 48);
  1352   000A5C  C031  F01E         	movff	TransmitirDatos@TempC,___lwmod@dividend
  1353   000A60  C032  F01F         	movff	TransmitirDatos@TempC+1,___lwmod@dividend+1
  1354   000A64  0E00               	movlw	0
  1355   000A66  6E21               	movwf	(___lwmod@divisor+1)^0,c
  1356   000A68  0E0A               	movlw	10
  1357   000A6A  6E20               	movwf	___lwmod@divisor^0,c
  1358   000A6C  ECB5  F00A         	call	___lwmod	;wreg free
  1359   000A70  501E               	movf	?___lwmod^0,w,c
  1360   000A72  0F30               	addlw	48
  1361   000A74  ECDF  F00B         	call	_EscribeLCD_c
  1362                           
  1363                           ;Laboratorio5.c: 234: EscribeLCD_c(Simb);
  1364   000A78  502F               	movf	TransmitirDatos@Simb^0,w,c
  1365   000A7A  ECDF  F00B         	call	_EscribeLCD_c
  1366                           
  1367                           ;Laboratorio5.c: 235: DireccionaLCD(192);
  1368   000A7E  0EC0               	movlw	192
  1369   000A80  ECEA  F00B         	call	_DireccionaLCD
  1370                           
  1371                           ;Laboratorio5.c: 236: MensajeLCD_Word("Hum:");
  1372   000A84  0E1E               	movlw	low STR_4
  1373   000A86  6E23               	movwf	MensajeLCD_Word@a^0,c
  1374   000A88  EC21  F00A         	call	_MensajeLCD_Word	;wreg free
  1375                           
  1376                           ;Laboratorio5.c: 237: EscribeLCD_c(Hum / 10 + 48);
  1377   000A8C  0E0A               	movlw	10
  1378   000A8E  6E1E               	movwf	___lbdiv@divisor^0,c
  1379   000A90  5039               	movf	_Hum^0,w,c
  1380   000A92  ECF7  F00A         	call	___lbdiv
  1381   000A96  0F30               	addlw	48
  1382   000A98  ECDF  F00B         	call	_EscribeLCD_c
  1383                           
  1384                           ;Laboratorio5.c: 238: EscribeLCD_c(Hum % 10 + 48);
  1385   000A9C  0E0A               	movlw	10
  1386   000A9E  6E1E               	movwf	___lbmod@divisor^0,c
  1387   000AA0  5039               	movf	_Hum^0,w,c
  1388   000AA2  EC5F  F00B         	call	___lbmod
  1389   000AA6  0F30               	addlw	48
  1390   000AA8  ECDF  F00B         	call	_EscribeLCD_c
  1391                           
  1392                           ;Laboratorio5.c: 239: EscribeLCD_c('%');
  1393   000AAC  0E25               	movlw	37
  1394   000AAE  ECDF  F00B         	call	_EscribeLCD_c
  1395   000AB2  0012               	return		;funcret
  1396   000AB4                     __end_of_TransmitirDatos:
  1397                           	callstack 0
  1398                           
  1399 ;; *************** function ___wmul *****************
  1400 ;; Defined at:
  1401 ;;		line 15 in file "C:\Program Files\Microchip\xc8\v2.40\pic\sources\c90\common\Umul16.c"
  1402 ;; Parameters:    Size  Location     Type
  1403 ;;  multiplier      2   29[COMRAM] unsigned int 
  1404 ;;  multiplicand    2   31[COMRAM] unsigned int 
  1405 ;; Auto vars:     Size  Location     Type
  1406 ;;  product         2   33[COMRAM] unsigned int 
  1407 ;; Return value:  Size  Location     Type
  1408 ;;                  2   29[COMRAM] unsigned int 
  1409 ;; Registers used:
  1410 ;;		wreg, status,2, status,0, prodl, prodh
  1411 ;; Tracked objects:
  1412 ;;		On entry : 0/0
  1413 ;;		On exit  : 0/0
  1414 ;;		Unchanged: 0/0
  1415 ;; Data sizes:     COMRAM   BANK0   BANK1   BANK2   BANK3   BANK4   BANK5   BANK6   BANK7
  1416 ;;      Params:         4       0       0       0       0       0       0       0       0
  1417 ;;      Locals:         2       0       0       0       0       0       0       0       0
  1418 ;;      Temps:          0       0       0       0       0       0       0       0       0
  1419 ;;      Totals:         6       0       0       0       0       0       0       0       0
  1420 ;;Total ram usage:        6 bytes
  1421 ;; Hardware stack levels used: 1
  1422 ;; Hardware stack levels required when called: 6
  1423 ;; This function calls:
  1424 ;;		Nothing
  1425 ;; This function is called by:
  1426 ;;		_TransmitirDatos
  1427 ;; This function uses a non-reentrant model
  1428 ;;
  1429                           
  1430                           	psect	text3
  1431   001712                     __ptext3:
  1432                           	callstack 0
  1433   001712                     ___wmul:
  1434                           	callstack 23
  1435                           
  1436                           ;incstack = 0
  1437   001712  501E               	movf	___wmul@multiplier^0,w,c
  1438   001714  0220               	mulwf	___wmul@multiplicand^0,c
  1439   001716  CFF3 F022          	movff	prodl,___wmul@product
  1440   00171A  CFF4 F023          	movff	prodh,___wmul@product+1
  1441   00171E  501E               	movf	___wmul@multiplier^0,w,c
  1442   001720  0221               	mulwf	(___wmul@multiplicand+1)^0,c
  1443   001722  50F3               	movf	243,w,c
  1444   001724  2623               	addwf	(___wmul@product+1)^0,f,c
  1445   001726  501F               	movf	(___wmul@multiplier+1)^0,w,c
  1446   001728  0220               	mulwf	___wmul@multiplicand^0,c
  1447   00172A  50F3               	movf	243,w,c
  1448   00172C  2623               	addwf	(___wmul@product+1)^0,f,c
  1449   00172E  C022  F01E         	movff	___wmul@product,?___wmul
  1450   001732  C023  F01F         	movff	___wmul@product+1,?___wmul+1
  1451   001736  0012               	return		;funcret
  1452   001738                     __end_of___wmul:
  1453                           	callstack 0
  1454                           
  1455 ;; *************** function ___lwmod *****************
  1456 ;; Defined at:
  1457 ;;		line 7 in file "C:\Program Files\Microchip\xc8\v2.40\pic\sources\c90\common\lwmod.c"
  1458 ;; Parameters:    Size  Location     Type
  1459 ;;  dividend        2   29[COMRAM] unsigned int 
  1460 ;;  divisor         2   31[COMRAM] unsigned int 
  1461 ;; Auto vars:     Size  Location     Type
  1462 ;;  counter         1   33[COMRAM] unsigned char 
  1463 ;; Return value:  Size  Location     Type
  1464 ;;                  2   29[COMRAM] unsigned int 
  1465 ;; Registers used:
  1466 ;;		wreg, status,2, status,0
  1467 ;; Tracked objects:
  1468 ;;		On entry : 0/0
  1469 ;;		On exit  : 0/0
  1470 ;;		Unchanged: 0/0
  1471 ;; Data sizes:     COMRAM   BANK0   BANK1   BANK2   BANK3   BANK4   BANK5   BANK6   BANK7
  1472 ;;      Params:         4       0       0       0       0       0       0       0       0
  1473 ;;      Locals:         1       0       0       0       0       0       0       0       0
  1474 ;;      Temps:          0       0       0       0       0       0       0       0       0
  1475 ;;      Totals:         5       0       0       0       0       0       0       0       0
  1476 ;;Total ram usage:        5 bytes
  1477 ;; Hardware stack levels used: 1
  1478 ;; Hardware stack levels required when called: 6
  1479 ;; This function calls:
  1480 ;;		Nothing
  1481 ;; This function is called by:
  1482 ;;		_TransmitirDatos
  1483 ;; This function uses a non-reentrant model
  1484 ;;
  1485                           
  1486                           	psect	text4
  1487   00156A                     __ptext4:
  1488                           	callstack 0
  1489   00156A                     ___lwmod:
  1490                           	callstack 23
  1491                           
  1492                           ;incstack = 0
  1493   00156A  5020               	movf	___lwmod@divisor^0,w,c
  1494   00156C  1021               	iorwf	(___lwmod@divisor+1)^0,w,c
  1495   00156E  B4D8               	btfsc	status,2,c
  1496   001570  D018               	goto	l790
  1497   001572  0E01               	movlw	1
  1498   001574  6E22               	movwf	___lwmod@counter^0,c
  1499   001576  D004               	goto	l2120
  1500   001578                     l2118:
  1501   001578  90D8               	bcf	status,0,c
  1502   00157A  3620               	rlcf	___lwmod@divisor^0,f,c
  1503   00157C  3621               	rlcf	(___lwmod@divisor+1)^0,f,c
  1504   00157E  2A22               	incf	___lwmod@counter^0,f,c
  1505   001580                     l2120:
  1506   001580  AE21               	btfss	(___lwmod@divisor+1)^0,7,c
  1507   001582  D7FA               	goto	l2118
  1508   001584                     u1070:
  1509   001584  5020               	movf	___lwmod@divisor^0,w,c
  1510   001586  5C1E               	subwf	___lwmod@dividend^0,w,c
  1511   001588  5021               	movf	(___lwmod@divisor+1)^0,w,c
  1512   00158A  581F               	subwfb	(___lwmod@dividend+1)^0,w,c
  1513   00158C  A0D8               	btfss	status,0,c
  1514   00158E  D004               	goto	l2126
  1515   001590  5020               	movf	___lwmod@divisor^0,w,c
  1516   001592  5E1E               	subwf	___lwmod@dividend^0,f,c
  1517   001594  5021               	movf	(___lwmod@divisor+1)^0,w,c
  1518   001596  5A1F               	subwfb	(___lwmod@dividend+1)^0,f,c
  1519   001598                     l2126:
  1520   001598  90D8               	bcf	status,0,c
  1521   00159A  3221               	rrcf	(___lwmod@divisor+1)^0,f,c
  1522   00159C  3220               	rrcf	___lwmod@divisor^0,f,c
  1523   00159E  2E22               	decfsz	___lwmod@counter^0,f,c
  1524   0015A0  D7F1               	goto	u1070
  1525   0015A2                     l790:
  1526   0015A2  C01E  F01E         	movff	___lwmod@dividend,?___lwmod
  1527   0015A6  C01F  F01F         	movff	___lwmod@dividend+1,?___lwmod+1
  1528   0015AA  0012               	return		;funcret
  1529   0015AC                     __end_of___lwmod:
  1530                           	callstack 0
  1531                           
  1532 ;; *************** function ___lwdiv *****************
  1533 ;; Defined at:
  1534 ;;		line 7 in file "C:\Program Files\Microchip\xc8\v2.40\pic\sources\c90\common\lwdiv.c"
  1535 ;; Parameters:    Size  Location     Type
  1536 ;;  dividend        2   29[COMRAM] unsigned int 
  1537 ;;  divisor         2   31[COMRAM] unsigned int 
  1538 ;; Auto vars:     Size  Location     Type
  1539 ;;  quotient        2   33[COMRAM] unsigned int 
  1540 ;;  counter         1   35[COMRAM] unsigned char 
  1541 ;; Return value:  Size  Location     Type
  1542 ;;                  2   29[COMRAM] unsigned int 
  1543 ;; Registers used:
  1544 ;;		wreg, status,2, status,0
  1545 ;; Tracked objects:
  1546 ;;		On entry : 0/0
  1547 ;;		On exit  : 0/0
  1548 ;;		Unchanged: 0/0
  1549 ;; Data sizes:     COMRAM   BANK0   BANK1   BANK2   BANK3   BANK4   BANK5   BANK6   BANK7
  1550 ;;      Params:         4       0       0       0       0       0       0       0       0
  1551 ;;      Locals:         3       0       0       0       0       0       0       0       0
  1552 ;;      Temps:          0       0       0       0       0       0       0       0       0
  1553 ;;      Totals:         7       0       0       0       0       0       0       0       0
  1554 ;;Total ram usage:        7 bytes
  1555 ;; Hardware stack levels used: 1
  1556 ;; Hardware stack levels required when called: 6
  1557 ;; This function calls:
  1558 ;;		Nothing
  1559 ;; This function is called by:
  1560 ;;		_TransmitirDatos
  1561 ;; This function uses a non-reentrant model
  1562 ;;
  1563                           
  1564                           	psect	text5
  1565   00134C                     __ptext5:
  1566                           	callstack 0
  1567   00134C                     ___lwdiv:
  1568                           	callstack 23
  1569                           
  1570                           ;incstack = 0
  1571   00134C  0E00               	movlw	0
  1572   00134E  6E23               	movwf	(___lwdiv@quotient+1)^0,c
  1573   001350  0E00               	movlw	0
  1574   001352  6E22               	movwf	___lwdiv@quotient^0,c
  1575   001354  5020               	movf	___lwdiv@divisor^0,w,c
  1576   001356  1021               	iorwf	(___lwdiv@divisor+1)^0,w,c
  1577   001358  B4D8               	btfsc	status,2,c
  1578   00135A  D01C               	goto	l780
  1579   00135C  0E01               	movlw	1
  1580   00135E  6E24               	movwf	___lwdiv@counter^0,c
  1581   001360  D004               	goto	l2100
  1582   001362                     l2098:
  1583   001362  90D8               	bcf	status,0,c
  1584   001364  3620               	rlcf	___lwdiv@divisor^0,f,c
  1585   001366  3621               	rlcf	(___lwdiv@divisor+1)^0,f,c
  1586   001368  2A24               	incf	___lwdiv@counter^0,f,c
  1587   00136A                     l2100:
  1588   00136A  AE21               	btfss	(___lwdiv@divisor+1)^0,7,c
  1589   00136C  D7FA               	goto	l2098
  1590   00136E                     u1040:
  1591   00136E  90D8               	bcf	status,0,c
  1592   001370  3622               	rlcf	___lwdiv@quotient^0,f,c
  1593   001372  3623               	rlcf	(___lwdiv@quotient+1)^0,f,c
  1594   001374  5020               	movf	___lwdiv@divisor^0,w,c
  1595   001376  5C1E               	subwf	___lwdiv@dividend^0,w,c
  1596   001378  5021               	movf	(___lwdiv@divisor+1)^0,w,c
  1597   00137A  581F               	subwfb	(___lwdiv@dividend+1)^0,w,c
  1598   00137C  A0D8               	btfss	status,0,c
  1599   00137E  D005               	goto	l2110
  1600   001380  5020               	movf	___lwdiv@divisor^0,w,c
  1601   001382  5E1E               	subwf	___lwdiv@dividend^0,f,c
  1602   001384  5021               	movf	(___lwdiv@divisor+1)^0,w,c
  1603   001386  5A1F               	subwfb	(___lwdiv@dividend+1)^0,f,c
  1604   001388  8022               	bsf	___lwdiv@quotient^0,0,c
  1605   00138A                     l2110:
  1606   00138A  90D8               	bcf	status,0,c
  1607   00138C  3221               	rrcf	(___lwdiv@divisor+1)^0,f,c
  1608   00138E  3220               	rrcf	___lwdiv@divisor^0,f,c
  1609   001390  2E24               	decfsz	___lwdiv@counter^0,f,c
  1610   001392  D7ED               	goto	u1040
  1611   001394                     l780:
  1612   001394  C022  F01E         	movff	___lwdiv@quotient,?___lwdiv
  1613   001398  C023  F01F         	movff	___lwdiv@quotient+1,?___lwdiv+1
  1614   00139C  0012               	return		;funcret
  1615   00139E                     __end_of___lwdiv:
  1616                           	callstack 0
  1617                           
  1618 ;; *************** function ___lbmod *****************
  1619 ;; Defined at:
  1620 ;;		line 4 in file "C:\Program Files\Microchip\xc8\v2.40\pic\sources\c90\common\lbmod.c"
  1621 ;; Parameters:    Size  Location     Type
  1622 ;;  dividend        1    wreg     unsigned char 
  1623 ;;  divisor         1   29[COMRAM] unsigned char 
  1624 ;; Auto vars:     Size  Location     Type
  1625 ;;  dividend        1   30[COMRAM] unsigned char 
  1626 ;;  rem             1   32[COMRAM] unsigned char 
  1627 ;;  counter         1   31[COMRAM] unsigned char 
  1628 ;; Return value:  Size  Location     Type
  1629 ;;                  1    wreg      unsigned char 
  1630 ;; Registers used:
  1631 ;;		wreg, status,2, status,0
  1632 ;; Tracked objects:
  1633 ;;		On entry : 0/0
  1634 ;;		On exit  : 0/0
  1635 ;;		Unchanged: 0/0
  1636 ;; Data sizes:     COMRAM   BANK0   BANK1   BANK2   BANK3   BANK4   BANK5   BANK6   BANK7
  1637 ;;      Params:         1       0       0       0       0       0       0       0       0
  1638 ;;      Locals:         3       0       0       0       0       0       0       0       0
  1639 ;;      Temps:          0       0       0       0       0       0       0       0       0
  1640 ;;      Totals:         4       0       0       0       0       0       0       0       0
  1641 ;;Total ram usage:        4 bytes
  1642 ;; Hardware stack levels used: 1
  1643 ;; Hardware stack levels required when called: 6
  1644 ;; This function calls:
  1645 ;;		Nothing
  1646 ;; This function is called by:
  1647 ;;		_main
  1648 ;;		_TransmitirDatos
  1649 ;; This function uses a non-reentrant model
  1650 ;;
  1651                           
  1652                           	psect	text6
  1653   0016BE                     __ptext6:
  1654                           	callstack 0
  1655   0016BE                     ___lbmod:
  1656                           	callstack 24
  1657                           
  1658                           ;incstack = 0
  1659                           ;___lbmod@dividend stored from wreg
  1660   0016BE  6E1F               	movwf	___lbmod@dividend^0,c
  1661   0016C0  0E08               	movlw	8
  1662   0016C2  6E20               	movwf	___lbmod@counter^0,c
  1663   0016C4  0E00               	movlw	0
  1664   0016C6  6E21               	movwf	___lbmod@rem^0,c
  1665   0016C8                     l2078:
  1666   0016C8  90D8               	bcf	status,0,c
  1667   0016CA  341F               	rlcf	___lbmod@dividend^0,w,c
  1668   0016CC  3421               	rlcf	___lbmod@rem^0,w,c
  1669   0016CE  6E21               	movwf	___lbmod@rem^0,c
  1670   0016D0  90D8               	bcf	status,0,c
  1671   0016D2  361F               	rlcf	___lbmod@dividend^0,f,c
  1672   0016D4  501E               	movf	___lbmod@divisor^0,w,c
  1673   0016D6  5C21               	subwf	___lbmod@rem^0,w,c
  1674   0016D8  A0D8               	btfss	status,0,c
  1675   0016DA  D002               	goto	l2086
  1676   0016DC  501E               	movf	___lbmod@divisor^0,w,c
  1677   0016DE  5E21               	subwf	___lbmod@rem^0,f,c
  1678   0016E0                     l2086:
  1679   0016E0  2E20               	decfsz	___lbmod@counter^0,f,c
  1680   0016E2  D7F2               	goto	l2078
  1681   0016E4  5021               	movf	___lbmod@rem^0,w,c
  1682   0016E6  0012               	return		;funcret
  1683   0016E8                     __end_of___lbmod:
  1684                           	callstack 0
  1685                           
  1686 ;; *************** function ___lbdiv *****************
  1687 ;; Defined at:
  1688 ;;		line 4 in file "C:\Program Files\Microchip\xc8\v2.40\pic\sources\c90\common\lbdiv.c"
  1689 ;; Parameters:    Size  Location     Type
  1690 ;;  dividend        1    wreg     unsigned char 
  1691 ;;  divisor         1   29[COMRAM] unsigned char 
  1692 ;; Auto vars:     Size  Location     Type
  1693 ;;  dividend        1   30[COMRAM] unsigned char 
  1694 ;;  quotient        1   32[COMRAM] unsigned char 
  1695 ;;  counter         1   31[COMRAM] unsigned char 
  1696 ;; Return value:  Size  Location     Type
  1697 ;;                  1    wreg      unsigned char 
  1698 ;; Registers used:
  1699 ;;		wreg, status,2, status,0
  1700 ;; Tracked objects:
  1701 ;;		On entry : 0/0
  1702 ;;		On exit  : 0/0
  1703 ;;		Unchanged: 0/0
  1704 ;; Data sizes:     COMRAM   BANK0   BANK1   BANK2   BANK3   BANK4   BANK5   BANK6   BANK7
  1705 ;;      Params:         1       0       0       0       0       0       0       0       0
  1706 ;;      Locals:         3       0       0       0       0       0       0       0       0
  1707 ;;      Temps:          0       0       0       0       0       0       0       0       0
  1708 ;;      Totals:         4       0       0       0       0       0       0       0       0
  1709 ;;Total ram usage:        4 bytes
  1710 ;; Hardware stack levels used: 1
  1711 ;; Hardware stack levels required when called: 6
  1712 ;; This function calls:
  1713 ;;		Nothing
  1714 ;; This function is called by:
  1715 ;;		_main
  1716 ;;		_TransmitirDatos
  1717 ;; This function uses a non-reentrant model
  1718 ;;
  1719                           
  1720                           	psect	text7
  1721   0015EE                     __ptext7:
  1722                           	callstack 0
  1723   0015EE                     ___lbdiv:
  1724                           	callstack 24
  1725                           
  1726                           ;incstack = 0
  1727                           ;___lbdiv@dividend stored from wreg
  1728   0015EE  6E1F               	movwf	___lbdiv@dividend^0,c
  1729   0015F0  0E00               	movlw	0
  1730   0015F2  6E21               	movwf	___lbdiv@quotient^0,c
  1731   0015F4  501E               	movf	___lbdiv@divisor^0,w,c
  1732   0015F6  B4D8               	btfsc	status,2,c
  1733   0015F8  D015               	goto	l2072
  1734   0015FA  0E01               	movlw	1
  1735   0015FC  6E20               	movwf	___lbdiv@counter^0,c
  1736   0015FE  D003               	goto	l2060
  1737   001600                     l2056:
  1738   001600  90D8               	bcf	status,0,c
  1739   001602  361E               	rlcf	___lbdiv@divisor^0,f,c
  1740   001604  2A20               	incf	___lbdiv@counter^0,f,c
  1741   001606                     l2060:
  1742   001606  AE1E               	btfss	___lbdiv@divisor^0,7,c
  1743   001608  D7FB               	goto	l2056
  1744   00160A                     u1000:
  1745   00160A  90D8               	bcf	status,0,c
  1746   00160C  3621               	rlcf	___lbdiv@quotient^0,f,c
  1747   00160E  501E               	movf	___lbdiv@divisor^0,w,c
  1748   001610  5C1F               	subwf	___lbdiv@dividend^0,w,c
  1749   001612  A0D8               	btfss	status,0,c
  1750   001614  D003               	goto	l2068
  1751   001616  501E               	movf	___lbdiv@divisor^0,w,c
  1752   001618  5E1F               	subwf	___lbdiv@dividend^0,f,c
  1753   00161A  8021               	bsf	___lbdiv@quotient^0,0,c
  1754   00161C                     l2068:
  1755   00161C  90D8               	bcf	status,0,c
  1756   00161E  321E               	rrcf	___lbdiv@divisor^0,f,c
  1757   001620  2E20               	decfsz	___lbdiv@counter^0,f,c
  1758   001622  D7F3               	goto	u1000
  1759   001624                     l2072:
  1760   001624  5021               	movf	___lbdiv@quotient^0,w,c
  1761   001626  0012               	return		;funcret
  1762   001628                     __end_of___lbdiv:
  1763                           	callstack 0
  1764                           
  1765 ;; *************** function ___awdiv *****************
  1766 ;; Defined at:
  1767 ;;		line 7 in file "C:\Program Files\Microchip\xc8\v2.40\pic\sources\c90\common\awdiv.c"
  1768 ;; Parameters:    Size  Location     Type
  1769 ;;  dividend        2   29[COMRAM] int 
  1770 ;;  divisor         2   31[COMRAM] int 
  1771 ;; Auto vars:     Size  Location     Type
  1772 ;;  quotient        2   35[COMRAM] int 
  1773 ;;  sign            1   34[COMRAM] unsigned char 
  1774 ;;  counter         1   33[COMRAM] unsigned char 
  1775 ;; Return value:  Size  Location     Type
  1776 ;;                  2   29[COMRAM] int 
  1777 ;; Registers used:
  1778 ;;		wreg, status,2, status,0
  1779 ;; Tracked objects:
  1780 ;;		On entry : 0/0
  1781 ;;		On exit  : 0/0
  1782 ;;		Unchanged: 0/0
  1783 ;; Data sizes:     COMRAM   BANK0   BANK1   BANK2   BANK3   BANK4   BANK5   BANK6   BANK7
  1784 ;;      Params:         4       0       0       0       0       0       0       0       0
  1785 ;;      Locals:         4       0       0       0       0       0       0       0       0
  1786 ;;      Temps:          0       0       0       0       0       0       0       0       0
  1787 ;;      Totals:         8       0       0       0       0       0       0       0       0
  1788 ;;Total ram usage:        8 bytes
  1789 ;; Hardware stack levels used: 1
  1790 ;; Hardware stack levels required when called: 6
  1791 ;; This function calls:
  1792 ;;		Nothing
  1793 ;; This function is called by:
  1794 ;;		_TransmitirDatos
  1795 ;; This function uses a non-reentrant model
  1796 ;;
  1797                           
  1798                           	psect	text8
  1799   001178                     __ptext8:
  1800                           	callstack 0
  1801   001178                     ___awdiv:
  1802                           	callstack 23
  1803                           
  1804                           ;incstack = 0
  1805   001178  0E00               	movlw	0
  1806   00117A  6E23               	movwf	___awdiv@sign^0,c
  1807   00117C  AE21               	btfss	(___awdiv@divisor+1)^0,7,c
  1808   00117E  D006               	goto	l2014
  1809   001180  6C20               	negf	___awdiv@divisor^0,c
  1810   001182  1E21               	comf	(___awdiv@divisor+1)^0,f,c
  1811   001184  B0D8               	btfsc	status,0,c
  1812   001186  2A21               	incf	(___awdiv@divisor+1)^0,f,c
  1813   001188  0E01               	movlw	1
  1814   00118A  6E23               	movwf	___awdiv@sign^0,c
  1815   00118C                     l2014:
  1816   00118C  AE1F               	btfss	(___awdiv@dividend+1)^0,7,c
  1817   00118E  D006               	goto	l2020
  1818   001190  6C1E               	negf	___awdiv@dividend^0,c
  1819   001192  1E1F               	comf	(___awdiv@dividend+1)^0,f,c
  1820   001194  B0D8               	btfsc	status,0,c
  1821   001196  2A1F               	incf	(___awdiv@dividend+1)^0,f,c
  1822   001198  0E01               	movlw	1
  1823   00119A  1A23               	xorwf	___awdiv@sign^0,f,c
  1824   00119C                     l2020:
  1825   00119C  0E00               	movlw	0
  1826   00119E  6E25               	movwf	(___awdiv@quotient+1)^0,c
  1827   0011A0  0E00               	movlw	0
  1828   0011A2  6E24               	movwf	___awdiv@quotient^0,c
  1829   0011A4  5020               	movf	___awdiv@divisor^0,w,c
  1830   0011A6  1021               	iorwf	(___awdiv@divisor+1)^0,w,c
  1831   0011A8  B4D8               	btfsc	status,2,c
  1832   0011AA  D01C               	goto	l2042
  1833   0011AC  0E01               	movlw	1
  1834   0011AE  6E22               	movwf	___awdiv@counter^0,c
  1835   0011B0  D004               	goto	l2028
  1836   0011B2                     l2026:
  1837   0011B2  90D8               	bcf	status,0,c
  1838   0011B4  3620               	rlcf	___awdiv@divisor^0,f,c
  1839   0011B6  3621               	rlcf	(___awdiv@divisor+1)^0,f,c
  1840   0011B8  2A22               	incf	___awdiv@counter^0,f,c
  1841   0011BA                     l2028:
  1842   0011BA  AE21               	btfss	(___awdiv@divisor+1)^0,7,c
  1843   0011BC  D7FA               	goto	l2026
  1844   0011BE                     u960:
  1845   0011BE  90D8               	bcf	status,0,c
  1846   0011C0  3624               	rlcf	___awdiv@quotient^0,f,c
  1847   0011C2  3625               	rlcf	(___awdiv@quotient+1)^0,f,c
  1848   0011C4  5020               	movf	___awdiv@divisor^0,w,c
  1849   0011C6  5C1E               	subwf	___awdiv@dividend^0,w,c
  1850   0011C8  5021               	movf	(___awdiv@divisor+1)^0,w,c
  1851   0011CA  581F               	subwfb	(___awdiv@dividend+1)^0,w,c
  1852   0011CC  A0D8               	btfss	status,0,c
  1853   0011CE  D005               	goto	l2038
  1854   0011D0  5020               	movf	___awdiv@divisor^0,w,c
  1855   0011D2  5E1E               	subwf	___awdiv@dividend^0,f,c
  1856   0011D4  5021               	movf	(___awdiv@divisor+1)^0,w,c
  1857   0011D6  5A1F               	subwfb	(___awdiv@dividend+1)^0,f,c
  1858   0011D8  8024               	bsf	___awdiv@quotient^0,0,c
  1859   0011DA                     l2038:
  1860   0011DA  90D8               	bcf	status,0,c
  1861   0011DC  3221               	rrcf	(___awdiv@divisor+1)^0,f,c
  1862   0011DE  3220               	rrcf	___awdiv@divisor^0,f,c
  1863   0011E0  2E22               	decfsz	___awdiv@counter^0,f,c
  1864   0011E2  D7ED               	goto	u960
  1865   0011E4                     l2042:
  1866   0011E4  5023               	movf	___awdiv@sign^0,w,c
  1867   0011E6  B4D8               	btfsc	status,2,c
  1868   0011E8  D004               	goto	l2046
  1869   0011EA  6C24               	negf	___awdiv@quotient^0,c
  1870   0011EC  1E25               	comf	(___awdiv@quotient+1)^0,f,c
  1871   0011EE  B0D8               	btfsc	status,0,c
  1872   0011F0  2A25               	incf	(___awdiv@quotient+1)^0,f,c
  1873   0011F2                     l2046:
  1874   0011F2  C024  F01E         	movff	___awdiv@quotient,?___awdiv
  1875   0011F6  C025  F01F         	movff	___awdiv@quotient+1,?___awdiv+1
  1876   0011FA  0012               	return		;funcret
  1877   0011FC                     __end_of___awdiv:
  1878                           	callstack 0
  1879                           
  1880 ;; *************** function _Transmitir *****************
  1881 ;; Defined at:
  1882 ;;		line 165 in file "Laboratorio5.c"
  1883 ;; Parameters:    Size  Location     Type
  1884 ;;  BufferT         1    wreg     unsigned char 
  1885 ;; Auto vars:     Size  Location     Type
  1886 ;;  BufferT         1   29[COMRAM] unsigned char 
  1887 ;; Return value:  Size  Location     Type
  1888 ;;                  1    wreg      void 
  1889 ;; Registers used:
  1890 ;;		wreg
  1891 ;; Tracked objects:
  1892 ;;		On entry : 0/0
  1893 ;;		On exit  : 0/0
  1894 ;;		Unchanged: 0/0
  1895 ;; Data sizes:     COMRAM   BANK0   BANK1   BANK2   BANK3   BANK4   BANK5   BANK6   BANK7
  1896 ;;      Params:         0       0       0       0       0       0       0       0       0
  1897 ;;      Locals:         1       0       0       0       0       0       0       0       0
  1898 ;;      Temps:          0       0       0       0       0       0       0       0       0
  1899 ;;      Totals:         1       0       0       0       0       0       0       0       0
  1900 ;;Total ram usage:        1 bytes
  1901 ;; Hardware stack levels used: 1
  1902 ;; Hardware stack levels required when called: 6
  1903 ;; This function calls:
  1904 ;;		Nothing
  1905 ;; This function is called by:
  1906 ;;		_TransmitirDatos
  1907 ;; This function uses a non-reentrant model
  1908 ;;
  1909                           
  1910                           	psect	text9
  1911   00187C                     __ptext9:
  1912                           	callstack 0
  1913   00187C                     _Transmitir:
  1914                           	callstack 23
  1915                           
  1916                           ;incstack = 0
  1917                           ;Transmitir@BufferT stored from wreg
  1918   00187C  6E1E               	movwf	Transmitir@BufferT^0,c
  1919   00187E                     
  1920                           ;Laboratorio5.c: 166: while (TRMT == 0);
  1921   00187E  A2AC               	btfss	4012,1,c	;volatile
  1922   001880  D7FE               	goto	l1194
  1923                           
  1924                           ;Laboratorio5.c: 167: TXREG = BufferT;
  1925   001882  C01E  FFAD         	movff	Transmitir@BufferT,4013	;volatile
  1926   001886  0012               	return		;funcret
  1927   001888                     __end_of_Transmitir:
  1928                           	callstack 0
  1929                           
  1930 ;; *************** function _MensajeLCD_Word *****************
  1931 ;; Defined at:
  1932 ;;		line 247 in file "LibLCDXC8.h"
  1933 ;; Parameters:    Size  Location     Type
  1934 ;;  a               1   34[COMRAM] PTR unsigned char 
  1935 ;;		 -> STR_4(5), STR_3(6), STR_2(10), STR_1(13), 
  1936 ;; Auto vars:     Size  Location     Type
  1937 ;;  i               2   36[COMRAM] int 
  1938 ;; Return value:  Size  Location     Type
  1939 ;;                  1    wreg      void 
  1940 ;; Registers used:
  1941 ;;		wreg, status,2, status,0, tblptrl, tblptrh, tblptru, cstack
  1942 ;; Tracked objects:
  1943 ;;		On entry : 0/0
  1944 ;;		On exit  : 0/0
  1945 ;;		Unchanged: 0/0
  1946 ;; Data sizes:     COMRAM   BANK0   BANK1   BANK2   BANK3   BANK4   BANK5   BANK6   BANK7
  1947 ;;      Params:         1       0       0       0       0       0       0       0       0
  1948 ;;      Locals:         2       0       0       0       0       0       0       0       0
  1949 ;;      Temps:          1       0       0       0       0       0       0       0       0
  1950 ;;      Totals:         4       0       0       0       0       0       0       0       0
  1951 ;;Total ram usage:        4 bytes
  1952 ;; Hardware stack levels used: 1
  1953 ;; Hardware stack levels required when called: 9
  1954 ;; This function calls:
  1955 ;;		_EscribeLCD_c
  1956 ;; This function is called by:
  1957 ;;		_main
  1958 ;;		_TransmitirDatos
  1959 ;; This function uses a non-reentrant model
  1960 ;;
  1961                           
  1962                           	psect	text10
  1963   001442                     __ptext10:
  1964                           	callstack 0
  1965   001442                     _MensajeLCD_Word:
  1966                           	callstack 20
  1967                           
  1968                           ;LibLCDXC8.h: 251: for(int i = 0; i<16; i++){
  1969                           
  1970                           ;incstack = 0
  1971   001442  0E00               	movlw	0
  1972   001444  6E26               	movwf	(MensajeLCD_Word@i+1)^0,c
  1973   001446  0E00               	movlw	0
  1974   001448  6E25               	movwf	MensajeLCD_Word@i^0,c
  1975   00144A                     l1990:
  1976                           
  1977                           ;LibLCDXC8.h: 252: if(a[i] == (0)){
  1978   00144A  5023               	movf	MensajeLCD_Word@a^0,w,c
  1979   00144C  2425               	addwf	MensajeLCD_Word@i^0,w,c
  1980   00144E  6E24               	movwf	??_MensajeLCD_Word^0,c
  1981   001450  C024  FFF6         	movff	??_MensajeLCD_Word,tblptrl
  1982   001454                     	if	1	;There is more than 1 active tblptr byte
  1983   001454  0E08               	movlw	high __smallconst
  1984   001456  6EF7               	movwf	tblptrh,c
  1985   001458                     	endif
  1986   001458                     	if	0	;tblptru may be non-zero
  1987   001458                     	endif
  1988   001458                     	if	0	;tblptru may be non-zero
  1989   001458                     	endif
  1990   001458  0008               	tblrd		*
  1991   00145A  50F5               	movf	tablat,w,c
  1992   00145C  0900               	iorlw	0
  1993   00145E  B4D8               	btfsc	status,2,c
  1994   001460  0012               	return	
  1995                           
  1996                           ;LibLCDXC8.h: 254: };LibLCDXC8.h: 255: EscribeLCD_c(a[i]);
  1997   001462  5023               	movf	MensajeLCD_Word@a^0,w,c
  1998   001464  2425               	addwf	MensajeLCD_Word@i^0,w,c
  1999   001466  6E24               	movwf	??_MensajeLCD_Word^0,c
  2000   001468  C024  FFF6         	movff	??_MensajeLCD_Word,tblptrl
  2001   00146C                     	if	1	;There is more than 1 active tblptr byte
  2002   00146C  0E08               	movlw	high __smallconst
  2003   00146E  6EF7               	movwf	tblptrh,c
  2004   001470                     	endif
  2005   001470                     	if	0	;tblptru may be non-zero
  2006   001470                     	endif
  2007   001470                     	if	0	;tblptru may be non-zero
  2008   001470                     	endif
  2009   001470  0008               	tblrd		*
  2010   001472  50F5               	movf	tablat,w,c
  2011   001474  ECDF  F00B         	call	_EscribeLCD_c
  2012   001478  4A25               	infsnz	MensajeLCD_Word@i^0,f,c
  2013   00147A  2A26               	incf	(MensajeLCD_Word@i+1)^0,f,c
  2014   00147C  BE26               	btfsc	(MensajeLCD_Word@i+1)^0,7,c
  2015   00147E  D7E5               	goto	l1990
  2016   001480  5026               	movf	(MensajeLCD_Word@i+1)^0,w,c
  2017   001482  E105               	bnz	u920
  2018   001484  0E10               	movlw	16
  2019   001486  5C25               	subwf	MensajeLCD_Word@i^0,w,c
  2020   001488  B0D8               	btfsc	status,0,c
  2021   00148A  0012               	return	
  2022   00148C  D7DE               	goto	l1990
  2023   00148E                     u920:
  2024   00148E  0012               	return		;funcret
  2025   001490                     __end_of_MensajeLCD_Word:
  2026                           	callstack 0
  2027                           
  2028 ;; *************** function _EscribeLCD_c *****************
  2029 ;; Defined at:
  2030 ;;		line 148 in file "LibLCDXC8.h"
  2031 ;; Parameters:    Size  Location     Type
  2032 ;;  a               1    wreg     unsigned char 
  2033 ;; Auto vars:     Size  Location     Type
  2034 ;;  a               1   33[COMRAM] unsigned char 
  2035 ;; Return value:  Size  Location     Type
  2036 ;;                  1    wreg      void 
  2037 ;; Registers used:
  2038 ;;		wreg, status,2, status,0, cstack
  2039 ;; Tracked objects:
  2040 ;;		On entry : 0/0
  2041 ;;		On exit  : 0/0
  2042 ;;		Unchanged: 0/0
  2043 ;; Data sizes:     COMRAM   BANK0   BANK1   BANK2   BANK3   BANK4   BANK5   BANK6   BANK7
  2044 ;;      Params:         0       0       0       0       0       0       0       0       0
  2045 ;;      Locals:         1       0       0       0       0       0       0       0       0
  2046 ;;      Temps:          0       0       0       0       0       0       0       0       0
  2047 ;;      Totals:         1       0       0       0       0       0       0       0       0
  2048 ;;Total ram usage:        1 bytes
  2049 ;; Hardware stack levels used: 1
  2050 ;; Hardware stack levels required when called: 8
  2051 ;; This function calls:
  2052 ;;		_EnviaDato
  2053 ;;		_HabilitaLCD
  2054 ;;		_RetardoLCD
  2055 ;; This function is called by:
  2056 ;;		_MensajeLCD_Word
  2057 ;;		_main
  2058 ;;		_TransmitirDatos
  2059 ;; This function uses a non-reentrant model
  2060 ;;
  2061                           
  2062                           	psect	text11
  2063   0017BE                     __ptext11:
  2064                           	callstack 0
  2065   0017BE                     _EscribeLCD_c:
  2066                           	callstack 20
  2067                           
  2068                           ;incstack = 0
  2069                           ;EscribeLCD_c@a stored from wreg
  2070   0017BE  6E22               	movwf	EscribeLCD_c@a^0,c
  2071                           
  2072                           ;LibLCDXC8.h: 152: LATD6=1;
  2073   0017C0  8C8C               	bsf	3980,6,c	;volatile
  2074                           
  2075                           ;LibLCDXC8.h: 153: EnviaDato(a);
  2076   0017C2  5022               	movf	EscribeLCD_c@a^0,w,c
  2077   0017C4  EC6F  F00A         	call	_EnviaDato
  2078                           
  2079                           ;LibLCDXC8.h: 154: HabilitaLCD();
  2080   0017C8  EC30  F00C         	call	_HabilitaLCD	;wreg free
  2081                           
  2082                           ;LibLCDXC8.h: 155: RetardoLCD(4);
  2083   0017CC  0E04               	movlw	4
  2084   0017CE  EC40  F009         	call	_RetardoLCD
  2085   0017D2  0012               	return		;funcret
  2086   0017D4                     __end_of_EscribeLCD_c:
  2087                           	callstack 0
  2088                           
  2089 ;; *************** function _DireccionaLCD *****************
  2090 ;; Defined at:
  2091 ;;		line 259 in file "LibLCDXC8.h"
  2092 ;; Parameters:    Size  Location     Type
  2093 ;;  a               1    wreg     unsigned char 
  2094 ;; Auto vars:     Size  Location     Type
  2095 ;;  a               1   33[COMRAM] unsigned char 
  2096 ;; Return value:  Size  Location     Type
  2097 ;;                  1    wreg      void 
  2098 ;; Registers used:
  2099 ;;		wreg, status,2, status,0, cstack
  2100 ;; Tracked objects:
  2101 ;;		On entry : 0/0
  2102 ;;		On exit  : 0/0
  2103 ;;		Unchanged: 0/0
  2104 ;; Data sizes:     COMRAM   BANK0   BANK1   BANK2   BANK3   BANK4   BANK5   BANK6   BANK7
  2105 ;;      Params:         0       0       0       0       0       0       0       0       0
  2106 ;;      Locals:         1       0       0       0       0       0       0       0       0
  2107 ;;      Temps:          0       0       0       0       0       0       0       0       0
  2108 ;;      Totals:         1       0       0       0       0       0       0       0       0
  2109 ;;Total ram usage:        1 bytes
  2110 ;; Hardware stack levels used: 1
  2111 ;; Hardware stack levels required when called: 8
  2112 ;; This function calls:
  2113 ;;		_EnviaDato
  2114 ;;		_HabilitaLCD
  2115 ;;		_RetardoLCD
  2116 ;; This function is called by:
  2117 ;;		_main
  2118 ;;		_TransmitirDatos
  2119 ;; This function uses a non-reentrant model
  2120 ;;
  2121                           
  2122                           	psect	text12
  2123   0017D4                     __ptext12:
  2124                           	callstack 0
  2125   0017D4                     _DireccionaLCD:
  2126                           	callstack 21
  2127                           
  2128                           ;incstack = 0
  2129                           ;DireccionaLCD@a stored from wreg
  2130   0017D4  6E22               	movwf	DireccionaLCD@a^0,c
  2131                           
  2132                           ;LibLCDXC8.h: 262: LATD6=0;
  2133   0017D6  9C8C               	bcf	3980,6,c	;volatile
  2134                           
  2135                           ;LibLCDXC8.h: 263: EnviaDato(a);
  2136   0017D8  5022               	movf	DireccionaLCD@a^0,w,c
  2137   0017DA  EC6F  F00A         	call	_EnviaDato
  2138                           
  2139                           ;LibLCDXC8.h: 264: HabilitaLCD();
  2140   0017DE  EC30  F00C         	call	_HabilitaLCD	;wreg free
  2141                           
  2142                           ;LibLCDXC8.h: 265: RetardoLCD(4);
  2143   0017E2  0E04               	movlw	4
  2144   0017E4  EC40  F009         	call	_RetardoLCD
  2145   0017E8  0012               	return		;funcret
  2146   0017EA                     __end_of_DireccionaLCD:
  2147                           	callstack 0
  2148                           
  2149 ;; *************** function _LeerHT11 *****************
  2150 ;; Defined at:
  2151 ;;		line 115 in file "Laboratorio5.c"
  2152 ;; Parameters:    Size  Location     Type
  2153 ;;		None
  2154 ;; Auto vars:     Size  Location     Type
  2155 ;;  contr           1   34[COMRAM] unsigned char 
  2156 ;;  i               1    0        unsigned char 
  2157 ;; Return value:  Size  Location     Type
  2158 ;;                  1    wreg      void 
  2159 ;; Registers used:
  2160 ;;		wreg, status,2, status,0, cstack
  2161 ;; Tracked objects:
  2162 ;;		On entry : 0/0
  2163 ;;		On exit  : 0/0
  2164 ;;		Unchanged: 0/0
  2165 ;; Data sizes:     COMRAM   BANK0   BANK1   BANK2   BANK3   BANK4   BANK5   BANK6   BANK7
  2166 ;;      Params:         0       0       0       0       0       0       0       0       0
  2167 ;;      Locals:         1       0       0       0       0       0       0       0       0
  2168 ;;      Temps:          1       0       0       0       0       0       0       0       0
  2169 ;;      Totals:         2       0       0       0       0       0       0       0       0
  2170 ;;Total ram usage:        2 bytes
  2171 ;; Hardware stack levels used: 1
  2172 ;; Hardware stack levels required when called: 8
  2173 ;; This function calls:
  2174 ;;		_LeerByte
  2175 ;; This function is called by:
  2176 ;;		_main
  2177 ;; This function uses a non-reentrant model
  2178 ;;
  2179                           
  2180                           	psect	text13
  2181   00139E                     __ptext13:
  2182                           	callstack 0
  2183   00139E                     _LeerHT11:
  2184                           	callstack 22
  2185                           
  2186                           ;Laboratorio5.c: 116: unsigned char i, contr = 0;
  2187                           
  2188                           ;incstack = 0
  2189   00139E  0E00               	movlw	0
  2190   0013A0  6E23               	movwf	LeerHT11@contr^0,c
  2191                           
  2192                           ;Laboratorio5.c: 118: TRISC2 = 0;
  2193   0013A2  9494               	bcf	3988,2,c	;volatile
  2194                           
  2195                           ;Laboratorio5.c: 119: _delay((unsigned long)((18)*(8000000/4000.0)));
  2196   0013A4  0E2F               	movlw	47
  2197   0013A6  6E22               	movwf	??_LeerHT11^0,c
  2198   0013A8  0EC0               	movlw	192
  2199   0013AA                     u1657:
  2200   0013AA  2EE8               	decfsz	wreg,f,c
  2201   0013AC  D7FE               	bra	u1657
  2202   0013AE  2E22               	decfsz	??_LeerHT11^0,f,c
  2203   0013B0  D7FC               	bra	u1657
  2204                           
  2205                           ;Laboratorio5.c: 121: TRISC2 = 1;
  2206   0013B2  8494               	bsf	3988,2,c	;volatile
  2207   0013B4                     l201:
  2208   0013B4  B482               	btfsc	3970,2,c	;volatile
  2209   0013B6  D7FE               	goto	l201
  2210                           
  2211                           ;Laboratorio5.c: 123: _delay((unsigned long)((40)*(8000000/4000000.0)));
  2212   0013B8  0E1A               	movlw	26
  2213   0013BA                     u1667:
  2214   0013BA  2EE8               	decfsz	wreg,f,c
  2215   0013BC  D7FE               	bra	u1667
  2216   0013BE  D000               	nop2	
  2217                           
  2218                           ;Laboratorio5.c: 124: if (RC2 == 0) contr++;
  2219   0013C0  A482               	btfss	3970,2,c	;volatile
  2220   0013C2  2A23               	incf	LeerHT11@contr^0,f,c
  2221                           
  2222                           ;Laboratorio5.c: 125: _delay((unsigned long)((80)*(8000000/4000000.0)));
  2223   0013C4  0E35               	movlw	53
  2224   0013C6                     u1677:
  2225   0013C6  2EE8               	decfsz	wreg,f,c
  2226   0013C8  D7FE               	bra	u1677
  2227   0013CA  F000               	nop	
  2228                           
  2229                           ;Laboratorio5.c: 127: if (RC2 == 1) contr++;
  2230   0013CC  B482               	btfsc	3970,2,c	;volatile
  2231   0013CE  2A23               	incf	LeerHT11@contr^0,f,c
  2232   0013D0                     l206:
  2233   0013D0  B482               	btfsc	3970,2,c	;volatile
  2234   0013D2  D7FE               	goto	l206
  2235                           
  2236                           ;Laboratorio5.c: 130: Hum = LeerByte();
  2237   0013D4  ECC2  F00B         	call	_LeerByte	;wreg free
  2238   0013D8  6E39               	movwf	_Hum^0,c
  2239                           
  2240                           ;Laboratorio5.c: 131: LeerByte();
  2241   0013DA  ECC2  F00B         	call	_LeerByte	;wreg free
  2242                           
  2243                           ;Laboratorio5.c: 132: Temp = LeerByte();
  2244   0013DE  ECC2  F00B         	call	_LeerByte	;wreg free
  2245   0013E2  6E3A               	movwf	_Temp^0,c
  2246                           
  2247                           ;Laboratorio5.c: 133: LeerByte();
  2248   0013E4  ECC2  F00B         	call	_LeerByte	;wreg free
  2249                           
  2250                           ;Laboratorio5.c: 134: Che = LeerByte();
  2251   0013E8  ECC2  F00B         	call	_LeerByte	;wreg free
  2252   0013EC  6E38               	movwf	_Che^0,c
  2253   0013EE  0012               	return		;funcret
  2254   0013F0                     __end_of_LeerHT11:
  2255                           	callstack 0
  2256                           
  2257 ;; *************** function _LeerByte *****************
  2258 ;; Defined at:
  2259 ;;		line 137 in file "Laboratorio5.c"
  2260 ;; Parameters:    Size  Location     Type
  2261 ;;		None
  2262 ;; Auto vars:     Size  Location     Type
  2263 ;;  i               1   32[COMRAM] unsigned char 
  2264 ;;  res             1   31[COMRAM] unsigned char 
  2265 ;; Return value:  Size  Location     Type
  2266 ;;                  1    wreg      unsigned char 
  2267 ;; Registers used:
  2268 ;;		wreg, status,2, status,0, cstack
  2269 ;; Tracked objects:
  2270 ;;		On entry : 0/0
  2271 ;;		On exit  : 0/0
  2272 ;;		Unchanged: 0/0
  2273 ;; Data sizes:     COMRAM   BANK0   BANK1   BANK2   BANK3   BANK4   BANK5   BANK6   BANK7
  2274 ;;      Params:         0       0       0       0       0       0       0       0       0
  2275 ;;      Locals:         2       0       0       0       0       0       0       0       0
  2276 ;;      Temps:          1       0       0       0       0       0       0       0       0
  2277 ;;      Totals:         3       0       0       0       0       0       0       0       0
  2278 ;;Total ram usage:        3 bytes
  2279 ;; Hardware stack levels used: 1
  2280 ;; Hardware stack levels required when called: 7
  2281 ;; This function calls:
  2282 ;;		_LeerBit
  2283 ;; This function is called by:
  2284 ;;		_LeerHT11
  2285 ;; This function uses a non-reentrant model
  2286 ;;
  2287                           
  2288                           	psect	text14
  2289   001784                     __ptext14:
  2290                           	callstack 0
  2291   001784                     _LeerByte:
  2292                           	callstack 22
  2293                           
  2294                           ;Laboratorio5.c: 138: unsigned char res = 0, i;
  2295                           
  2296                           ;incstack = 0
  2297   001784  0E00               	movlw	0
  2298   001786  6E20               	movwf	LeerByte@res^0,c
  2299                           
  2300                           ;Laboratorio5.c: 139: for (i = 8; i > 0; i--) {
  2301   001788  0E08               	movlw	8
  2302   00178A  6E21               	movwf	LeerByte@i^0,c
  2303   00178C                     l1184:
  2304                           
  2305                           ;Laboratorio5.c: 140: res = (res << 1) | LeerBit();
  2306   00178C  EC31  F00B         	call	_LeerBit	;wreg free
  2307   001790  6E1F               	movwf	??_LeerByte^0,c
  2308   001792  5020               	movf	LeerByte@res^0,w,c
  2309   001794  2420               	addwf	LeerByte@res^0,w,c
  2310   001796  101F               	iorwf	??_LeerByte^0,w,c
  2311   001798  6E20               	movwf	LeerByte@res^0,c
  2312   00179A  0621               	decf	LeerByte@i^0,f,c
  2313   00179C  5021               	movf	LeerByte@i^0,w,c
  2314   00179E  A4D8               	btfss	status,2,c
  2315   0017A0  D7F5               	goto	l1184
  2316                           
  2317                           ;Laboratorio5.c: 141: };Laboratorio5.c: 142: return res;
  2318   0017A2  5020               	movf	LeerByte@res^0,w,c
  2319   0017A4  0012               	return		;funcret
  2320   0017A6                     __end_of_LeerByte:
  2321                           	callstack 0
  2322                           
  2323 ;; *************** function _LeerBit *****************
  2324 ;; Defined at:
  2325 ;;		line 145 in file "Laboratorio5.c"
  2326 ;; Parameters:    Size  Location     Type
  2327 ;;		None
  2328 ;; Auto vars:     Size  Location     Type
  2329 ;;  res             1   29[COMRAM] unsigned char 
  2330 ;; Return value:  Size  Location     Type
  2331 ;;                  1    wreg      unsigned char 
  2332 ;; Registers used:
  2333 ;;		wreg, status,2
  2334 ;; Tracked objects:
  2335 ;;		On entry : 0/0
  2336 ;;		On exit  : 0/0
  2337 ;;		Unchanged: 0/0
  2338 ;; Data sizes:     COMRAM   BANK0   BANK1   BANK2   BANK3   BANK4   BANK5   BANK6   BANK7
  2339 ;;      Params:         0       0       0       0       0       0       0       0       0
  2340 ;;      Locals:         1       0       0       0       0       0       0       0       0
  2341 ;;      Temps:          0       0       0       0       0       0       0       0       0
  2342 ;;      Totals:         1       0       0       0       0       0       0       0       0
  2343 ;;Total ram usage:        1 bytes
  2344 ;; Hardware stack levels used: 1
  2345 ;; Hardware stack levels required when called: 6
  2346 ;; This function calls:
  2347 ;;		Nothing
  2348 ;; This function is called by:
  2349 ;;		_LeerByte
  2350 ;; This function uses a non-reentrant model
  2351 ;;
  2352                           
  2353                           	psect	text15
  2354   001662                     __ptext15:
  2355                           	callstack 0
  2356   001662                     _LeerBit:
  2357                           	callstack 22
  2358                           
  2359                           ;Laboratorio5.c: 146: unsigned char res = 0;
  2360                           
  2361                           ;incstack = 0
  2362   001662  0E00               	movlw	0
  2363   001664  6E1E               	movwf	LeerBit@res^0,c
  2364   001666                     l217:
  2365   001666  A482               	btfss	3970,2,c	;volatile
  2366   001668  D7FE               	goto	l217
  2367                           
  2368                           ;Laboratorio5.c: 148: _delay((unsigned long)((13)*(8000000/4000000.0)));
  2369   00166A  0E08               	movlw	8
  2370   00166C                     u1687:
  2371   00166C  2EE8               	decfsz	wreg,f,c
  2372   00166E  D7FE               	bra	u1687
  2373   001670  D000               	nop2	
  2374                           
  2375                           ;Laboratorio5.c: 149: if (RC2 == 1) res = 0;
  2376   001672  A482               	btfss	3970,2,c	;volatile
  2377   001674  D002               	goto	l1130
  2378   001676  0E00               	movlw	0
  2379   001678  6E1E               	movwf	LeerBit@res^0,c
  2380   00167A                     l1130:
  2381                           
  2382                           ;Laboratorio5.c: 150: _delay((unsigned long)((22)*(8000000/4000000.0)));
  2383   00167A  0E0E               	movlw	14
  2384   00167C                     u1697:
  2385   00167C  2EE8               	decfsz	wreg,f,c
  2386   00167E  D7FE               	bra	u1697
  2387   001680  D000               	nop2	
  2388                           
  2389                           ;Laboratorio5.c: 151: if (RC2 == 1) {
  2390   001682  A482               	btfss	3970,2,c	;volatile
  2391   001684  D004               	goto	u80
  2392                           
  2393                           ;Laboratorio5.c: 152: res = 1;
  2394   001686  0E01               	movlw	1
  2395   001688  6E1E               	movwf	LeerBit@res^0,c
  2396   00168A                     l222:
  2397   00168A  B482               	btfsc	3970,2,c	;volatile
  2398   00168C  D7FE               	goto	l222
  2399   00168E                     u80:
  2400                           
  2401                           ;Laboratorio5.c: 154: };Laboratorio5.c: 155: return res;
  2402   00168E  501E               	movf	LeerBit@res^0,w,c
  2403   001690  0012               	return		;funcret
  2404   001692                     __end_of_LeerBit:
  2405                           	callstack 0
  2406                           
  2407 ;; *************** function _InicializaLCD *****************
  2408 ;; Defined at:
  2409 ;;		line 70 in file "LibLCDXC8.h"
  2410 ;; Parameters:    Size  Location     Type
  2411 ;;		None
  2412 ;; Auto vars:     Size  Location     Type
  2413 ;;		None
  2414 ;; Return value:  Size  Location     Type
  2415 ;;                  1    wreg      void 
  2416 ;; Registers used:
  2417 ;;		wreg, status,2, status,0, cstack
  2418 ;; Tracked objects:
  2419 ;;		On entry : 0/0
  2420 ;;		On exit  : 0/0
  2421 ;;		Unchanged: 0/0
  2422 ;; Data sizes:     COMRAM   BANK0   BANK1   BANK2   BANK3   BANK4   BANK5   BANK6   BANK7
  2423 ;;      Params:         0       0       0       0       0       0       0       0       0
  2424 ;;      Locals:         0       0       0       0       0       0       0       0       0
  2425 ;;      Temps:          0       0       0       0       0       0       0       0       0
  2426 ;;      Totals:         0       0       0       0       0       0       0       0       0
  2427 ;;Total ram usage:        0 bytes
  2428 ;; Hardware stack levels used: 1
  2429 ;; Hardware stack levels required when called: 9
  2430 ;; This function calls:
  2431 ;;		_BorraLCD
  2432 ;;		_EnviaDato
  2433 ;;		_HabilitaLCD
  2434 ;;		_RetardoLCD
  2435 ;; This function is called by:
  2436 ;;		_main
  2437 ;; This function uses a non-reentrant model
  2438 ;;
  2439                           
  2440                           	psect	text16
  2441   0010DC                     __ptext16:
  2442                           	callstack 0
  2443   0010DC                     _InicializaLCD:
  2444                           	callstack 21
  2445                           
  2446                           ;LibLCDXC8.h: 72: LATD6=0;
  2447                           
  2448                           ;incstack = 0
  2449   0010DC  9C8C               	bcf	3980,6,c	;volatile
  2450                           
  2451                           ;LibLCDXC8.h: 73: if(interfaz==4)
  2452   0010DE  0E04               	movlw	4
  2453   0010E0  183B               	xorwf	_interfaz^0,w,c
  2454   0010E2  A4D8               	btfss	status,2,c
  2455   0010E4  D004               	goto	l1504
  2456                           
  2457                           ;LibLCDXC8.h: 74: LATD=(LATD & 0b00001111) | 0x30;
  2458   0010E6  508C               	movf	140,w,c	;volatile
  2459   0010E8  0B0F               	andlw	15
  2460   0010EA  0930               	iorlw	48
  2461   0010EC  D001               	goto	L4
  2462   0010EE                     l1504:
  2463                           
  2464                           ;LibLCDXC8.h: 75: else;LibLCDXC8.h: 76: LATD=0x3F;
  2465   0010EE  0E3F               	movlw	63
  2466   0010F0                     L4:
  2467   0010F0  6E8C               	movwf	140,c	;volatile
  2468                           
  2469                           ;LibLCDXC8.h: 77: HabilitaLCD();
  2470   0010F2  EC30  F00C         	call	_HabilitaLCD	;wreg free
  2471                           
  2472                           ;LibLCDXC8.h: 78: RetardoLCD(1);
  2473   0010F6  0E01               	movlw	1
  2474   0010F8  EC40  F009         	call	_RetardoLCD
  2475                           
  2476                           ;LibLCDXC8.h: 79: if(interfaz==4)
  2477   0010FC  0E04               	movlw	4
  2478   0010FE  183B               	xorwf	_interfaz^0,w,c
  2479   001100  A4D8               	btfss	status,2,c
  2480   001102  D004               	goto	l1514
  2481                           
  2482                           ;LibLCDXC8.h: 80: LATD=(LATD & 0b00001111) | 0x30;
  2483   001104  508C               	movf	140,w,c	;volatile
  2484   001106  0B0F               	andlw	15
  2485   001108  0930               	iorlw	48
  2486   00110A  D001               	goto	L5
  2487   00110C                     l1514:
  2488                           
  2489                           ;LibLCDXC8.h: 81: else;LibLCDXC8.h: 82: LATD=0x3F;
  2490   00110C  0E3F               	movlw	63
  2491   00110E                     L5:
  2492   00110E  6E8C               	movwf	140,c	;volatile
  2493                           
  2494                           ;LibLCDXC8.h: 83: HabilitaLCD();
  2495   001110  EC30  F00C         	call	_HabilitaLCD	;wreg free
  2496                           
  2497                           ;LibLCDXC8.h: 84: RetardoLCD(3);
  2498   001114  0E03               	movlw	3
  2499   001116  EC40  F009         	call	_RetardoLCD
  2500                           
  2501                           ;LibLCDXC8.h: 85: if(interfaz==4)
  2502   00111A  0E04               	movlw	4
  2503   00111C  183B               	xorwf	_interfaz^0,w,c
  2504   00111E  A4D8               	btfss	status,2,c
  2505   001120  D004               	goto	l1524
  2506                           
  2507                           ;LibLCDXC8.h: 86: LATD=(LATD & 0b00001111) | 0x30;
  2508   001122  508C               	movf	140,w,c	;volatile
  2509   001124  0B0F               	andlw	15
  2510   001126  0930               	iorlw	48
  2511   001128  D001               	goto	L6
  2512   00112A                     l1524:
  2513                           
  2514                           ;LibLCDXC8.h: 87: else;LibLCDXC8.h: 88: LATD=0x3F;
  2515   00112A  0E3F               	movlw	63
  2516   00112C                     L6:
  2517   00112C  6E8C               	movwf	140,c	;volatile
  2518                           
  2519                           ;LibLCDXC8.h: 89: HabilitaLCD();
  2520   00112E  EC30  F00C         	call	_HabilitaLCD	;wreg free
  2521                           
  2522                           ;LibLCDXC8.h: 90: RetardoLCD(4);
  2523   001132  0E04               	movlw	4
  2524   001134  EC40  F009         	call	_RetardoLCD
  2525                           
  2526                           ;LibLCDXC8.h: 91: if(interfaz==4){
  2527   001138  0E04               	movlw	4
  2528   00113A  183B               	xorwf	_interfaz^0,w,c
  2529   00113C  A4D8               	btfss	status,2,c
  2530   00113E  D011               	goto	l1544
  2531                           
  2532                           ;LibLCDXC8.h: 92: LATD=(LATD & 0b00001111) | 0x20;
  2533   001140  508C               	movf	140,w,c	;volatile
  2534   001142  0B0F               	andlw	15
  2535   001144  0920               	iorlw	32
  2536   001146  6E8C               	movwf	140,c	;volatile
  2537                           
  2538                           ;LibLCDXC8.h: 93: HabilitaLCD();
  2539   001148  EC30  F00C         	call	_HabilitaLCD	;wreg free
  2540                           
  2541                           ;LibLCDXC8.h: 94: RetardoLCD(4);
  2542   00114C  0E04               	movlw	4
  2543   00114E  EC40  F009         	call	_RetardoLCD
  2544                           
  2545                           ;LibLCDXC8.h: 95: EnviaDato(0x2F);
  2546   001152  0E2F               	movlw	47
  2547   001154  EC6F  F00A         	call	_EnviaDato
  2548                           
  2549                           ;LibLCDXC8.h: 96: HabilitaLCD();
  2550   001158  EC30  F00C         	call	_HabilitaLCD	;wreg free
  2551                           
  2552                           ;LibLCDXC8.h: 97: RetardoLCD(4);
  2553   00115C  0E04               	movlw	4
  2554   00115E  EC40  F009         	call	_RetardoLCD
  2555   001162                     l1544:
  2556                           
  2557                           ;LibLCDXC8.h: 98: };LibLCDXC8.h: 99: BorraLCD();
  2558   001162  EC0B  F00C         	call	_BorraLCD	;wreg free
  2559                           
  2560                           ;LibLCDXC8.h: 100: EnviaDato(0xF);
  2561   001166  0E0F               	movlw	15
  2562   001168  EC6F  F00A         	call	_EnviaDato
  2563                           
  2564                           ;LibLCDXC8.h: 101: HabilitaLCD();
  2565   00116C  EC30  F00C         	call	_HabilitaLCD	;wreg free
  2566                           
  2567                           ;LibLCDXC8.h: 102: RetardoLCD(4);
  2568   001170  0E04               	movlw	4
  2569   001172  EC40  F009         	call	_RetardoLCD
  2570   001176  0012               	return		;funcret
  2571   001178                     __end_of_InicializaLCD:
  2572                           	callstack 0
  2573                           
  2574 ;; *************** function _BorraLCD *****************
  2575 ;; Defined at:
  2576 ;;		line 111 in file "LibLCDXC8.h"
  2577 ;; Parameters:    Size  Location     Type
  2578 ;;		None
  2579 ;; Auto vars:     Size  Location     Type
  2580 ;;		None
  2581 ;; Return value:  Size  Location     Type
  2582 ;;                  1    wreg      void 
  2583 ;; Registers used:
  2584 ;;		wreg, status,2, status,0, cstack
  2585 ;; Tracked objects:
  2586 ;;		On entry : 0/0
  2587 ;;		On exit  : 0/0
  2588 ;;		Unchanged: 0/0
  2589 ;; Data sizes:     COMRAM   BANK0   BANK1   BANK2   BANK3   BANK4   BANK5   BANK6   BANK7
  2590 ;;      Params:         0       0       0       0       0       0       0       0       0
  2591 ;;      Locals:         0       0       0       0       0       0       0       0       0
  2592 ;;      Temps:          0       0       0       0       0       0       0       0       0
  2593 ;;      Totals:         0       0       0       0       0       0       0       0       0
  2594 ;;Total ram usage:        0 bytes
  2595 ;; Hardware stack levels used: 1
  2596 ;; Hardware stack levels required when called: 8
  2597 ;; This function calls:
  2598 ;;		_EnviaDato
  2599 ;;		_HabilitaLCD
  2600 ;;		_RetardoLCD
  2601 ;; This function is called by:
  2602 ;;		_InicializaLCD
  2603 ;;		_main
  2604 ;;		_TransmitirDatos
  2605 ;; This function uses a non-reentrant model
  2606 ;;
  2607                           
  2608                           	psect	text17
  2609   001816                     __ptext17:
  2610                           	callstack 0
  2611   001816                     _BorraLCD:
  2612                           	callstack 21
  2613                           
  2614                           ;LibLCDXC8.h: 113: LATD6=0;
  2615                           
  2616                           ;incstack = 0
  2617   001816  9C8C               	bcf	3980,6,c	;volatile
  2618                           
  2619                           ;LibLCDXC8.h: 114: EnviaDato(0x01);
  2620   001818  0E01               	movlw	1
  2621   00181A  EC6F  F00A         	call	_EnviaDato
  2622                           
  2623                           ;LibLCDXC8.h: 115: HabilitaLCD();
  2624   00181E  EC30  F00C         	call	_HabilitaLCD	;wreg free
  2625                           
  2626                           ;LibLCDXC8.h: 116: RetardoLCD(2);
  2627   001822  0E02               	movlw	2
  2628   001824  EC40  F009         	call	_RetardoLCD
  2629   001828  0012               	return		;funcret
  2630   00182A                     __end_of_BorraLCD:
  2631                           	callstack 0
  2632                           
  2633 ;; *************** function _EnviaDato *****************
  2634 ;; Defined at:
  2635 ;;		line 58 in file "LibLCDXC8.h"
  2636 ;; Parameters:    Size  Location     Type
  2637 ;;  a               1    wreg     unsigned char 
  2638 ;; Auto vars:     Size  Location     Type
  2639 ;;  a               1   32[COMRAM] unsigned char 
  2640 ;; Return value:  Size  Location     Type
  2641 ;;                  1    wreg      void 
  2642 ;; Registers used:
  2643 ;;		wreg, status,2, status,0, cstack
  2644 ;; Tracked objects:
  2645 ;;		On entry : 0/0
  2646 ;;		On exit  : 0/0
  2647 ;;		Unchanged: 0/0
  2648 ;; Data sizes:     COMRAM   BANK0   BANK1   BANK2   BANK3   BANK4   BANK5   BANK6   BANK7
  2649 ;;      Params:         0       0       0       0       0       0       0       0       0
  2650 ;;      Locals:         1       0       0       0       0       0       0       0       0
  2651 ;;      Temps:          1       0       0       0       0       0       0       0       0
  2652 ;;      Totals:         2       0       0       0       0       0       0       0       0
  2653 ;;Total ram usage:        2 bytes
  2654 ;; Hardware stack levels used: 1
  2655 ;; Hardware stack levels required when called: 7
  2656 ;; This function calls:
  2657 ;;		_HabilitaLCD
  2658 ;;		_RetardoLCD
  2659 ;; This function is called by:
  2660 ;;		_InicializaLCD
  2661 ;;		_BorraLCD
  2662 ;;		_EscribeLCD_c
  2663 ;;		_DireccionaLCD
  2664 ;; This function uses a non-reentrant model
  2665 ;;
  2666                           
  2667                           	psect	text18
  2668   0014DE                     __ptext18:
  2669                           	callstack 0
  2670   0014DE                     _EnviaDato:
  2671                           	callstack 20
  2672                           
  2673                           ;incstack = 0
  2674                           ;EnviaDato@a stored from wreg
  2675   0014DE  6E21               	movwf	EnviaDato@a^0,c
  2676                           
  2677                           ;LibLCDXC8.h: 59: if(interfaz==4){
  2678   0014E0  0E04               	movlw	4
  2679   0014E2  183B               	xorwf	_interfaz^0,w,c
  2680   0014E4  A4D8               	btfss	status,2,c
  2681   0014E6  D017               	goto	l1096
  2682                           
  2683                           ;LibLCDXC8.h: 60: LATD=(LATD & 0b00001111) | (a & 0b11110000);
  2684   0014E8  C021  F020         	movff	EnviaDato@a,??_EnviaDato
  2685   0014EC  0EF0               	movlw	240
  2686   0014EE  1620               	andwf	??_EnviaDato^0,f,c
  2687   0014F0  508C               	movf	140,w,c	;volatile
  2688   0014F2  0B0F               	andlw	15
  2689   0014F4  1020               	iorwf	??_EnviaDato^0,w,c
  2690   0014F6  6E8C               	movwf	140,c	;volatile
  2691                           
  2692                           ;LibLCDXC8.h: 61: HabilitaLCD();
  2693   0014F8  EC30  F00C         	call	_HabilitaLCD	;wreg free
  2694                           
  2695                           ;LibLCDXC8.h: 62: RetardoLCD(1);
  2696   0014FC  0E01               	movlw	1
  2697   0014FE  EC40  F009         	call	_RetardoLCD
  2698                           
  2699                           ;LibLCDXC8.h: 63: LATD=(LATD & 0b00001111) | (a<<4);
  2700   001502  C021  F020         	movff	EnviaDato@a,??_EnviaDato
  2701   001506  3A20               	swapf	??_EnviaDato^0,f,c
  2702   001508  0EF0               	movlw	240
  2703   00150A  1620               	andwf	??_EnviaDato^0,f,c
  2704   00150C  508C               	movf	140,w,c	;volatile
  2705   00150E  0B0F               	andlw	15
  2706   001510  1020               	iorwf	??_EnviaDato^0,w,c
  2707   001512  6E8C               	movwf	140,c	;volatile
  2708                           
  2709                           ;LibLCDXC8.h: 66: }else if(interfaz==8){
  2710   001514  0012               	return	
  2711   001516                     l1096:
  2712   001516  0E08               	movlw	8
  2713   001518  183B               	xorwf	_interfaz^0,w,c
  2714   00151A  A4D8               	btfss	status,2,c
  2715   00151C  0012               	return	
  2716                           
  2717                           ;LibLCDXC8.h: 67: LATD=a;
  2718   00151E  C021  FF8C         	movff	EnviaDato@a,3980	;volatile
  2719   001522  0012               	return		;funcret
  2720   001524                     __end_of_EnviaDato:
  2721                           	callstack 0
  2722                           
  2723 ;; *************** function _RetardoLCD *****************
  2724 ;; Defined at:
  2725 ;;		line 295 in file "LibLCDXC8.h"
  2726 ;; Parameters:    Size  Location     Type
  2727 ;;  a               1    wreg     unsigned char 
  2728 ;; Auto vars:     Size  Location     Type
  2729 ;;  a               1   30[COMRAM] unsigned char 
  2730 ;; Return value:  Size  Location     Type
  2731 ;;                  1    wreg      void 
  2732 ;; Registers used:
  2733 ;;		wreg, status,2, status,0
  2734 ;; Tracked objects:
  2735 ;;		On entry : 0/0
  2736 ;;		On exit  : 0/0
  2737 ;;		Unchanged: 0/0
  2738 ;; Data sizes:     COMRAM   BANK0   BANK1   BANK2   BANK3   BANK4   BANK5   BANK6   BANK7
  2739 ;;      Params:         0       0       0       0       0       0       0       0       0
  2740 ;;      Locals:         1       0       0       0       0       0       0       0       0
  2741 ;;      Temps:          1       0       0       0       0       0       0       0       0
  2742 ;;      Totals:         2       0       0       0       0       0       0       0       0
  2743 ;;Total ram usage:        2 bytes
  2744 ;; Hardware stack levels used: 1
  2745 ;; Hardware stack levels required when called: 6
  2746 ;; This function calls:
  2747 ;;		Nothing
  2748 ;; This function is called by:
  2749 ;;		_EnviaDato
  2750 ;;		_InicializaLCD
  2751 ;;		_BorraLCD
  2752 ;;		_EscribeLCD_c
  2753 ;;		_DireccionaLCD
  2754 ;; This function uses a non-reentrant model
  2755 ;;
  2756                           
  2757                           	psect	text19
  2758   001280                     __ptext19:
  2759                           	callstack 0
  2760   001280                     _RetardoLCD:
  2761                           	callstack 21
  2762                           
  2763                           ;incstack = 0
  2764                           ;RetardoLCD@a stored from wreg
  2765   001280  6E1F               	movwf	RetardoLCD@a^0,c
  2766                           
  2767                           ;LibLCDXC8.h: 296: switch(a){
  2768   001282  D023               	goto	l1064
  2769   001284                     l1054:
  2770   001284  0E62               	movlw	98
  2771   001286  6E1E               	movwf	??_RetardoLCD^0,c
  2772   001288  0E66               	movlw	102
  2773   00128A                     u1707:
  2774   00128A  2EE8               	decfsz	wreg,f,c
  2775   00128C  D7FE               	bra	u1707
  2776   00128E  2E1E               	decfsz	??_RetardoLCD^0,f,c
  2777   001290  D7FC               	bra	u1707
  2778                           
  2779                           ;LibLCDXC8.h: 299: break;
  2780   001292  0012               	return	
  2781   001294                     l1056:
  2782   001294  0E07               	movlw	7
  2783   001296  6E1E               	movwf	??_RetardoLCD^0,c
  2784   001298  0E7D               	movlw	125
  2785   00129A                     u1717:
  2786   00129A  2EE8               	decfsz	wreg,f,c
  2787   00129C  D7FE               	bra	u1717
  2788   00129E  2E1E               	decfsz	??_RetardoLCD^0,f,c
  2789   0012A0  D7FC               	bra	u1717
  2790   0012A2  F000               	nop	
  2791                           
  2792                           ;LibLCDXC8.h: 301: _delay((unsigned long)((640)*(20000000/4000000.0)));
  2793   0012A4  0E05               	movlw	5
  2794   0012A6  6E1E               	movwf	??_RetardoLCD^0,c
  2795   0012A8  0E26               	movlw	38
  2796   0012AA                     u1727:
  2797   0012AA  2EE8               	decfsz	wreg,f,c
  2798   0012AC  D7FE               	bra	u1727
  2799   0012AE  2E1E               	decfsz	??_RetardoLCD^0,f,c
  2800   0012B0  D7FC               	bra	u1727
  2801   0012B2  D000               	nop2	
  2802                           
  2803                           ;LibLCDXC8.h: 303: break;
  2804   0012B4  0012               	return	
  2805   0012B6                     l1058:
  2806   0012B6  0EA6               	movlw	166
  2807   0012B8                     u1737:
  2808   0012B8  2EE8               	decfsz	wreg,f,c
  2809   0012BA  D7FE               	bra	u1737
  2810   0012BC  D000               	nop2	
  2811                           
  2812                           ;LibLCDXC8.h: 306: break;
  2813   0012BE  0012               	return	
  2814   0012C0                     l1060:
  2815   0012C0  0E42               	movlw	66
  2816   0012C2                     u1747:
  2817   0012C2  2EE8               	decfsz	wreg,f,c
  2818   0012C4  D7FE               	bra	u1747
  2819   0012C6  D000               	nop2	
  2820                           
  2821                           ;LibLCDXC8.h: 309: break;
  2822   0012C8  0012               	return	
  2823   0012CA                     l1064:
  2824   0012CA  501F               	movf	RetardoLCD@a^0,w,c
  2825                           
  2826                           ; Switch size 1, requested type "simple"
  2827                           ; Number of cases is 4, Range of values is 1 to 4
  2828                           ; switch strategies available:
  2829                           ; Name         Instructions Cycles
  2830                           ; simple_byte           13     7 (average)
  2831                           ;	Chosen strategy is simple_byte
  2832   0012CC  0A01               	xorlw	1	; case 1
  2833   0012CE  B4D8               	btfsc	status,2,c
  2834   0012D0  D7D9               	goto	l1054
  2835   0012D2  0A03               	xorlw	3	; case 2
  2836   0012D4  B4D8               	btfsc	status,2,c
  2837   0012D6  D7DE               	goto	l1056
  2838   0012D8  0A01               	xorlw	1	; case 3
  2839   0012DA  B4D8               	btfsc	status,2,c
  2840   0012DC  D7EC               	goto	l1058
  2841   0012DE  0A07               	xorlw	7	; case 4
  2842   0012E0  A4D8               	btfss	status,2,c
  2843   0012E2  0012               	return	
  2844   0012E4  D7ED               	goto	l1060
  2845   0012E6                     __end_of_RetardoLCD:
  2846                           	callstack 0
  2847                           
  2848 ;; *************** function _HabilitaLCD *****************
  2849 ;; Defined at:
  2850 ;;		line 104 in file "LibLCDXC8.h"
  2851 ;; Parameters:    Size  Location     Type
  2852 ;;		None
  2853 ;; Auto vars:     Size  Location     Type
  2854 ;;		None
  2855 ;; Return value:  Size  Location     Type
  2856 ;;                  1    wreg      void 
  2857 ;; Registers used:
  2858 ;;		wreg
  2859 ;; Tracked objects:
  2860 ;;		On entry : 0/0
  2861 ;;		On exit  : 0/0
  2862 ;;		Unchanged: 0/0
  2863 ;; Data sizes:     COMRAM   BANK0   BANK1   BANK2   BANK3   BANK4   BANK5   BANK6   BANK7
  2864 ;;      Params:         0       0       0       0       0       0       0       0       0
  2865 ;;      Locals:         0       0       0       0       0       0       0       0       0
  2866 ;;      Temps:          0       0       0       0       0       0       0       0       0
  2867 ;;      Totals:         0       0       0       0       0       0       0       0       0
  2868 ;;Total ram usage:        0 bytes
  2869 ;; Hardware stack levels used: 1
  2870 ;; Hardware stack levels required when called: 6
  2871 ;; This function calls:
  2872 ;;		Nothing
  2873 ;; This function is called by:
  2874 ;;		_EnviaDato
  2875 ;;		_InicializaLCD
  2876 ;;		_BorraLCD
  2877 ;;		_EscribeLCD_c
  2878 ;;		_DireccionaLCD
  2879 ;; This function uses a non-reentrant model
  2880 ;;
  2881                           
  2882                           	psect	text20
  2883   001860                     __ptext20:
  2884                           	callstack 0
  2885   001860                     _HabilitaLCD:
  2886                           	callstack 21
  2887                           
  2888                           ;LibLCDXC8.h: 106: LATD7=1;
  2889                           
  2890                           ;incstack = 0
  2891   001860  8E8C               	bsf	3980,7,c	;volatile
  2892                           
  2893                           ;LibLCDXC8.h: 107: _delay((unsigned long)((40)*(20000000/4000000.0)));
  2894   001862  0E42               	movlw	66
  2895   001864                     u1757:
  2896   001864  2EE8               	decfsz	wreg,f,c
  2897   001866  D7FE               	bra	u1757
  2898   001868  D000               	nop2	
  2899                           
  2900                           ;LibLCDXC8.h: 109: LATD7=0;
  2901   00186A  9E8C               	bcf	3980,7,c	;volatile
  2902   00186C  0012               	return		;funcret
  2903   00186E                     __end_of_HabilitaLCD:
  2904                           	callstack 0
  2905                           
  2906 ;; *************** function _GuardarDatoEnEEPROM *****************
  2907 ;; Defined at:
  2908 ;;		line 286 in file "Laboratorio5.c"
  2909 ;; Parameters:    Size  Location     Type
  2910 ;;  dir             2   29[COMRAM] unsigned int 
  2911 ;;  dato            1   31[COMRAM] unsigned char 
  2912 ;; Auto vars:     Size  Location     Type
  2913 ;;		None
  2914 ;; Return value:  Size  Location     Type
  2915 ;;                  1    wreg      void 
  2916 ;; Registers used:
  2917 ;;		wreg, status,2
  2918 ;; Tracked objects:
  2919 ;;		On entry : 0/0
  2920 ;;		On exit  : 0/0
  2921 ;;		Unchanged: 0/0
  2922 ;; Data sizes:     COMRAM   BANK0   BANK1   BANK2   BANK3   BANK4   BANK5   BANK6   BANK7
  2923 ;;      Params:         3       0       0       0       0       0       0       0       0
  2924 ;;      Locals:         0       0       0       0       0       0       0       0       0
  2925 ;;      Temps:          0       0       0       0       0       0       0       0       0
  2926 ;;      Totals:         3       0       0       0       0       0       0       0       0
  2927 ;;Total ram usage:        3 bytes
  2928 ;; Hardware stack levels used: 1
  2929 ;; Hardware stack levels required when called: 6
  2930 ;; This function calls:
  2931 ;;		Nothing
  2932 ;; This function is called by:
  2933 ;;		_main
  2934 ;; This function uses a non-reentrant model
  2935 ;;
  2936                           
  2937                           	psect	text21
  2938   001738                     __ptext21:
  2939                           	callstack 0
  2940   001738                     _GuardarDatoEnEEPROM:
  2941                           	callstack 24
  2942                           
  2943                           ;Laboratorio5.c: 287: EEADR = dir;
  2944                           
  2945                           ;incstack = 0
  2946   001738  C01E  FFA9         	movff	GuardarDatoEnEEPROM@dir,4009	;volatile
  2947                           
  2948                           ;Laboratorio5.c: 288: EEDATA = dato;
  2949   00173C  C020  FFA8         	movff	GuardarDatoEnEEPROM@dato,4008	;volatile
  2950                           
  2951                           ;Laboratorio5.c: 290: EEPGD = 0;
  2952   001740  9EA6               	bcf	4006,7,c	;volsfr
  2953                           
  2954                           ;Laboratorio5.c: 291: CFGS = 0;
  2955   001742  9CA6               	bcf	4006,6,c	;volsfr
  2956                           
  2957                           ;Laboratorio5.c: 292: WREN = 1;
  2958   001744  84A6               	bsf	4006,2,c	;volsfr
  2959                           
  2960                           ;Laboratorio5.c: 294: GIE = 0;
  2961   001746  9EF2               	bcf	4082,7,c	;volatile
  2962                           
  2963                           ;Laboratorio5.c: 296: EECON2 = 0x55;
  2964   001748  0E55               	movlw	85
  2965   00174A  6EA7               	movwf	167,c	;volsfr
  2966                           
  2967                           ;Laboratorio5.c: 297: EECON2 = 0xAA;
  2968   00174C  0EAA               	movlw	170
  2969   00174E  6EA7               	movwf	167,c	;volsfr
  2970                           
  2971                           ;Laboratorio5.c: 298: WR = 1;
  2972   001750  82A6               	bsf	4006,1,c	;volsfr
  2973                           
  2974                           ;Laboratorio5.c: 299: GIE = 1;
  2975   001752  8EF2               	bsf	4082,7,c	;volatile
  2976   001754                     l278:
  2977   001754  A8A1               	btfss	4001,4,c	;volatile
  2978   001756  D7FE               	goto	l278
  2979                           
  2980                           ;Laboratorio5.c: 301: EEIF = 0;
  2981   001758  98A1               	bcf	4001,4,c	;volatile
  2982                           
  2983                           ;Laboratorio5.c: 302: WREN = 0;
  2984   00175A  94A6               	bcf	4006,2,c	;volsfr
  2985   00175C  0012               	return		;funcret
  2986   00175E                     __end_of_GuardarDatoEnEEPROM:
  2987                           	callstack 0
  2988                           
  2989 ;; *************** function _Conversion *****************
  2990 ;; Defined at:
  2991 ;;		line 279 in file "Laboratorio5.c"
  2992 ;; Parameters:    Size  Location     Type
  2993 ;;  canal           1    wreg     unsigned char 
  2994 ;; Auto vars:     Size  Location     Type
  2995 ;;  canal           1   29[COMRAM] unsigned char 
  2996 ;; Return value:  Size  Location     Type
  2997 ;;                  2   74[None  ] unsigned int 
  2998 ;; Registers used:
  2999 ;;		wreg, status,2, status,0
  3000 ;; Tracked objects:
  3001 ;;		On entry : 0/0
  3002 ;;		On exit  : 0/0
  3003 ;;		Unchanged: 0/0
  3004 ;; Data sizes:     COMRAM   BANK0   BANK1   BANK2   BANK3   BANK4   BANK5   BANK6   BANK7
  3005 ;;      Params:         0       0       0       0       0       0       0       0       0
  3006 ;;      Locals:         1       0       0       0       0       0       0       0       0
  3007 ;;      Temps:          0       0       0       0       0       0       0       0       0
  3008 ;;      Totals:         1       0       0       0       0       0       0       0       0
  3009 ;;Total ram usage:        1 bytes
  3010 ;; Hardware stack levels used: 1
  3011 ;; Hardware stack levels required when called: 6
  3012 ;; This function calls:
  3013 ;;		Nothing
  3014 ;; This function is called by:
  3015 ;;		_main
  3016 ;; This function uses a non-reentrant model
  3017 ;;
  3018                           
  3019                           	psect	text22
  3020   00182A                     __ptext22:
  3021                           	callstack 0
  3022   00182A                     _Conversion:
  3023                           	callstack 24
  3024                           
  3025                           ;incstack = 0
  3026                           ;Conversion@canal stored from wreg
  3027   00182A  6E1E               	movwf	Conversion@canal^0,c
  3028                           
  3029                           ;Laboratorio5.c: 280: ADCON0 = 0b00000001 | (canal << 2);
  3030   00182C  441E               	rlncf	Conversion@canal^0,w,c
  3031   00182E  46E8               	rlncf	wreg,f,c
  3032   001830  0BFC               	andlw	252
  3033   001832  0901               	iorlw	1
  3034   001834  6EC2               	movwf	194,c	;volatile
  3035                           
  3036                           ;Laboratorio5.c: 281: GO = 1;
  3037   001836  82C2               	bsf	4034,1,c	;volatile
  3038   001838                     l272:
  3039   001838  A2C2               	btfss	4034,1,c	;volatile
  3040   00183A  0012               	return	
  3041   00183C  D7FD               	goto	l272
  3042   00183E                     __end_of_Conversion:
  3043                           	callstack 0
  3044                           
  3045 ;; *************** function _ConfiguraLCD *****************
  3046 ;; Defined at:
  3047 ;;		line 54 in file "LibLCDXC8.h"
  3048 ;; Parameters:    Size  Location     Type
  3049 ;;  a               1    wreg     unsigned char 
  3050 ;; Auto vars:     Size  Location     Type
  3051 ;;  a               1   29[COMRAM] unsigned char 
  3052 ;; Return value:  Size  Location     Type
  3053 ;;                  1    wreg      void 
  3054 ;; Registers used:
  3055 ;;		wreg, status,2, status,0
  3056 ;; Tracked objects:
  3057 ;;		On entry : 0/0
  3058 ;;		On exit  : 0/0
  3059 ;;		Unchanged: 0/0
  3060 ;; Data sizes:     COMRAM   BANK0   BANK1   BANK2   BANK3   BANK4   BANK5   BANK6   BANK7
  3061 ;;      Params:         0       0       0       0       0       0       0       0       0
  3062 ;;      Locals:         1       0       0       0       0       0       0       0       0
  3063 ;;      Temps:          0       0       0       0       0       0       0       0       0
  3064 ;;      Totals:         1       0       0       0       0       0       0       0       0
  3065 ;;Total ram usage:        1 bytes
  3066 ;; Hardware stack levels used: 1
  3067 ;; Hardware stack levels required when called: 6
  3068 ;; This function calls:
  3069 ;;		Nothing
  3070 ;; This function is called by:
  3071 ;;		_main
  3072 ;; This function uses a non-reentrant model
  3073 ;;
  3074                           
  3075                           	psect	text23
  3076   0017A6                     __ptext23:
  3077                           	callstack 0
  3078   0017A6                     _ConfiguraLCD:
  3079                           	callstack 24
  3080                           
  3081                           ;incstack = 0
  3082                           ;ConfiguraLCD@a stored from wreg
  3083   0017A6  6E1E               	movwf	ConfiguraLCD@a^0,c
  3084                           
  3085                           ;LibLCDXC8.h: 55: if(a==4 | a ==8)
  3086   0017A8  0E04               	movlw	4
  3087   0017AA  181E               	xorwf	ConfiguraLCD@a^0,w,c
  3088   0017AC  B4D8               	btfsc	status,2,c
  3089   0017AE  D004               	goto	u490
  3090   0017B0  0E08               	movlw	8
  3091   0017B2  181E               	xorwf	ConfiguraLCD@a^0,w,c
  3092   0017B4  A4D8               	btfss	status,2,c
  3093   0017B6  0012               	return	
  3094   0017B8                     u490:
  3095                           
  3096                           ;LibLCDXC8.h: 56: interfaz=a;
  3097   0017B8  C01E  F03B         	movff	ConfiguraLCD@a,_interfaz
  3098   0017BC  0012               	return		;funcret
  3099   0017BE                     __end_of_ConfiguraLCD:
  3100                           	callstack 0
  3101                           
  3102 ;; *************** function _ColorRGB *****************
  3103 ;; Defined at:
  3104 ;;		line 243 in file "Laboratorio5.c"
  3105 ;; Parameters:    Size  Location     Type
  3106 ;;  val             2   29[COMRAM] unsigned int 
  3107 ;; Auto vars:     Size  Location     Type
  3108 ;;		None
  3109 ;; Return value:  Size  Location     Type
  3110 ;;                  1    wreg      void 
  3111 ;; Registers used:
  3112 ;;		wreg, status,2, status,0
  3113 ;; Tracked objects:
  3114 ;;		On entry : 0/0
  3115 ;;		On exit  : 0/0
  3116 ;;		Unchanged: 0/0
  3117 ;; Data sizes:     COMRAM   BANK0   BANK1   BANK2   BANK3   BANK4   BANK5   BANK6   BANK7
  3118 ;;      Params:         2       0       0       0       0       0       0       0       0
  3119 ;;      Locals:         0       0       0       0       0       0       0       0       0
  3120 ;;      Temps:          0       0       0       0       0       0       0       0       0
  3121 ;;      Totals:         2       0       0       0       0       0       0       0       0
  3122 ;;Total ram usage:        2 bytes
  3123 ;; Hardware stack levels used: 1
  3124 ;; Hardware stack levels required when called: 6
  3125 ;; This function calls:
  3126 ;;		Nothing
  3127 ;; This function is called by:
  3128 ;;		_main
  3129 ;; This function uses a non-reentrant model
  3130 ;;
  3131                           
  3132                           	psect	text24
  3133   000F0E                     __ptext24:
  3134                           	callstack 0
  3135   000F0E                     _ColorRGB:
  3136                           	callstack 24
  3137                           
  3138                           ;Laboratorio5.c: 244: if (val < 22) {
  3139                           
  3140                           ;incstack = 0
  3141   000F0E  501F               	movf	(ColorRGB@val+1)^0,w,c
  3142   000F10  E108               	bnz	l2314
  3143   000F12  0E16               	movlw	22
  3144   000F14  5C1E               	subwf	ColorRGB@val^0,w,c
  3145   000F16  B0D8               	btfsc	status,0,c
  3146   000F18  D004               	goto	l2314
  3147                           
  3148                           ;Laboratorio5.c: 245: RD0 = 0;
  3149   000F1A  9083               	bcf	3971,0,c	;volatile
  3150                           
  3151                           ;Laboratorio5.c: 246: RD1 = 0;
  3152   000F1C  9283               	bcf	3971,1,c	;volatile
  3153                           
  3154                           ;Laboratorio5.c: 247: RD2 = 0;
  3155   000F1E  9483               	bcf	3971,2,c	;volatile
  3156                           
  3157                           ;Laboratorio5.c: 248: } else if (val >= 22 && val < 25) {
  3158   000F20  0012               	return	
  3159   000F22                     l2314:
  3160   000F22  501F               	movf	(ColorRGB@val+1)^0,w,c
  3161   000F24  E104               	bnz	u1300
  3162   000F26  0E16               	movlw	22
  3163   000F28  5C1E               	subwf	ColorRGB@val^0,w,c
  3164   000F2A  A0D8               	btfss	status,0,c
  3165   000F2C  D00A               	goto	l2320
  3166   000F2E                     u1300:
  3167   000F2E  501F               	movf	(ColorRGB@val+1)^0,w,c
  3168   000F30  E108               	bnz	l2320
  3169   000F32  0E19               	movlw	25
  3170   000F34  5C1E               	subwf	ColorRGB@val^0,w,c
  3171   000F36  B0D8               	btfsc	status,0,c
  3172   000F38  D004               	goto	l2320
  3173                           
  3174                           ;Laboratorio5.c: 249: RD0 = 1;
  3175   000F3A  8083               	bsf	3971,0,c	;volatile
  3176                           
  3177                           ;Laboratorio5.c: 250: RD1 = 0;
  3178   000F3C  9283               	bcf	3971,1,c	;volatile
  3179                           
  3180                           ;Laboratorio5.c: 251: RD2 = 1;
  3181   000F3E  8483               	bsf	3971,2,c	;volatile
  3182                           
  3183                           ;Laboratorio5.c: 252: } else if (val >= 25 && val < 28) {
  3184   000F40  0012               	return	
  3185   000F42                     l2320:
  3186   000F42  501F               	movf	(ColorRGB@val+1)^0,w,c
  3187   000F44  E104               	bnz	u1320
  3188   000F46  0E19               	movlw	25
  3189   000F48  5C1E               	subwf	ColorRGB@val^0,w,c
  3190   000F4A  A0D8               	btfss	status,0,c
  3191   000F4C  D00A               	goto	l2326
  3192   000F4E                     u1320:
  3193   000F4E  501F               	movf	(ColorRGB@val+1)^0,w,c
  3194   000F50  E108               	bnz	l2326
  3195   000F52  0E1C               	movlw	28
  3196   000F54  5C1E               	subwf	ColorRGB@val^0,w,c
  3197   000F56  B0D8               	btfsc	status,0,c
  3198   000F58  D004               	goto	l2326
  3199                           
  3200                           ;Laboratorio5.c: 253: RD0 = 0;
  3201   000F5A  9083               	bcf	3971,0,c	;volatile
  3202                           
  3203                           ;Laboratorio5.c: 254: RD1 = 0;
  3204   000F5C  9283               	bcf	3971,1,c	;volatile
  3205                           
  3206                           ;Laboratorio5.c: 255: RD2 = 1;
  3207   000F5E  8483               	bsf	3971,2,c	;volatile
  3208                           
  3209                           ;Laboratorio5.c: 256: } else if (val >= 28 && val < 31) {
  3210   000F60  0012               	return	
  3211   000F62                     l2326:
  3212   000F62  501F               	movf	(ColorRGB@val+1)^0,w,c
  3213   000F64  E104               	bnz	u1340
  3214   000F66  0E1C               	movlw	28
  3215   000F68  5C1E               	subwf	ColorRGB@val^0,w,c
  3216   000F6A  A0D8               	btfss	status,0,c
  3217   000F6C  D00A               	goto	l2332
  3218   000F6E                     u1340:
  3219   000F6E  501F               	movf	(ColorRGB@val+1)^0,w,c
  3220   000F70  E108               	bnz	l2332
  3221   000F72  0E1F               	movlw	31
  3222   000F74  5C1E               	subwf	ColorRGB@val^0,w,c
  3223   000F76  B0D8               	btfsc	status,0,c
  3224   000F78  D004               	goto	l2332
  3225                           
  3226                           ;Laboratorio5.c: 257: RD0 = 0;
  3227   000F7A  9083               	bcf	3971,0,c	;volatile
  3228                           
  3229                           ;Laboratorio5.c: 258: RD1 = 1;
  3230   000F7C  8283               	bsf	3971,1,c	;volatile
  3231                           
  3232                           ;Laboratorio5.c: 259: RD2 = 1;
  3233   000F7E  8483               	bsf	3971,2,c	;volatile
  3234                           
  3235                           ;Laboratorio5.c: 260: } else if (val >= 31 && val < 34) {
  3236   000F80  0012               	return	
  3237   000F82                     l2332:
  3238   000F82  501F               	movf	(ColorRGB@val+1)^0,w,c
  3239   000F84  E104               	bnz	u1360
  3240   000F86  0E1F               	movlw	31
  3241   000F88  5C1E               	subwf	ColorRGB@val^0,w,c
  3242   000F8A  A0D8               	btfss	status,0,c
  3243   000F8C  D00A               	goto	l2338
  3244   000F8E                     u1360:
  3245   000F8E  501F               	movf	(ColorRGB@val+1)^0,w,c
  3246   000F90  E108               	bnz	l2338
  3247   000F92  0E22               	movlw	34
  3248   000F94  5C1E               	subwf	ColorRGB@val^0,w,c
  3249   000F96  B0D8               	btfsc	status,0,c
  3250   000F98  D004               	goto	l2338
  3251                           
  3252                           ;Laboratorio5.c: 261: RD0 = 0;
  3253   000F9A  9083               	bcf	3971,0,c	;volatile
  3254                           
  3255                           ;Laboratorio5.c: 262: RD1 = 1;
  3256   000F9C  8283               	bsf	3971,1,c	;volatile
  3257                           
  3258                           ;Laboratorio5.c: 263: RD2 = 0;
  3259   000F9E  9483               	bcf	3971,2,c	;volatile
  3260                           
  3261                           ;Laboratorio5.c: 264: } else if (val >= 34 && val < 37) {
  3262   000FA0  0012               	return	
  3263   000FA2                     l2338:
  3264   000FA2  501F               	movf	(ColorRGB@val+1)^0,w,c
  3265   000FA4  E104               	bnz	u1380
  3266   000FA6  0E22               	movlw	34
  3267   000FA8  5C1E               	subwf	ColorRGB@val^0,w,c
  3268   000FAA  A0D8               	btfss	status,0,c
  3269   000FAC  D00A               	goto	l2344
  3270   000FAE                     u1380:
  3271   000FAE  501F               	movf	(ColorRGB@val+1)^0,w,c
  3272   000FB0  E108               	bnz	l2344
  3273   000FB2  0E25               	movlw	37
  3274   000FB4  5C1E               	subwf	ColorRGB@val^0,w,c
  3275   000FB6  B0D8               	btfsc	status,0,c
  3276   000FB8  D004               	goto	l2344
  3277                           
  3278                           ;Laboratorio5.c: 265: RD0 = 1;
  3279   000FBA  8083               	bsf	3971,0,c	;volatile
  3280                           
  3281                           ;Laboratorio5.c: 266: RD1 = 1;
  3282   000FBC  8283               	bsf	3971,1,c	;volatile
  3283                           
  3284                           ;Laboratorio5.c: 267: RD2 = 0;
  3285   000FBE  9483               	bcf	3971,2,c	;volatile
  3286                           
  3287                           ;Laboratorio5.c: 268: } else if (val >= 37 && val < 40) {
  3288   000FC0  0012               	return	
  3289   000FC2                     l2344:
  3290   000FC2  501F               	movf	(ColorRGB@val+1)^0,w,c
  3291   000FC4  E104               	bnz	u1400
  3292   000FC6  0E25               	movlw	37
  3293   000FC8  5C1E               	subwf	ColorRGB@val^0,w,c
  3294   000FCA  A0D8               	btfss	status,0,c
  3295   000FCC  D00A               	goto	l2350
  3296   000FCE                     u1400:
  3297   000FCE  501F               	movf	(ColorRGB@val+1)^0,w,c
  3298   000FD0  E108               	bnz	l2350
  3299   000FD2  0E28               	movlw	40
  3300   000FD4  5C1E               	subwf	ColorRGB@val^0,w,c
  3301   000FD6  B0D8               	btfsc	status,0,c
  3302   000FD8  D004               	goto	l2350
  3303                           
  3304                           ;Laboratorio5.c: 269: RD0 = 1;
  3305   000FDA  8083               	bsf	3971,0,c	;volatile
  3306                           
  3307                           ;Laboratorio5.c: 270: RD1 = 0;
  3308   000FDC  9283               	bcf	3971,1,c	;volatile
  3309                           
  3310                           ;Laboratorio5.c: 271: RD2 = 0;
  3311   000FDE  9483               	bcf	3971,2,c	;volatile
  3312                           
  3313                           ;Laboratorio5.c: 272: } else if (val >= 40) {
  3314   000FE0  0012               	return	
  3315   000FE2                     l2350:
  3316   000FE2  501F               	movf	(ColorRGB@val+1)^0,w,c
  3317   000FE4  E104               	bnz	u1420
  3318   000FE6  0E28               	movlw	40
  3319   000FE8  5C1E               	subwf	ColorRGB@val^0,w,c
  3320   000FEA  A0D8               	btfss	status,0,c
  3321   000FEC  0012               	return	
  3322   000FEE                     u1420:
  3323                           
  3324                           ;Laboratorio5.c: 273: RD0 = 1;
  3325   000FEE  8083               	bsf	3971,0,c	;volatile
  3326                           
  3327                           ;Laboratorio5.c: 274: RD1 = 1;
  3328   000FF0  8283               	bsf	3971,1,c	;volatile
  3329                           
  3330                           ;Laboratorio5.c: 275: RD2 = 1;
  3331   000FF2  8483               	bsf	3971,2,c	;volatile
  3332   000FF4  0012               	return	
  3333   000FF6                     __end_of_ColorRGB:
  3334                           	callstack 0
  3335                           
  3336 ;; *************** function _ISR *****************
  3337 ;; Defined at:
  3338 ;;		line 316 in file "Laboratorio5.c"
  3339 ;; Parameters:    Size  Location     Type
  3340 ;;		None
  3341 ;; Auto vars:     Size  Location     Type
  3342 ;;		None
  3343 ;; Return value:  Size  Location     Type
  3344 ;;                  1    wreg      void 
  3345 ;; Registers used:
  3346 ;;		wreg, status,2, status,0, tblptrl, tblptrh, tblptru, prodl, prodh, cstack
  3347 ;; Tracked objects:
  3348 ;;		On entry : 0/0
  3349 ;;		On exit  : 0/0
  3350 ;;		Unchanged: 0/0
  3351 ;; Data sizes:     COMRAM   BANK0   BANK1   BANK2   BANK3   BANK4   BANK5   BANK6   BANK7
  3352 ;;      Params:         0       0       0       0       0       0       0       0       0
  3353 ;;      Locals:         0       0       0       0       0       0       0       0       0
  3354 ;;      Temps:          8       0       0       0       0       0       0       0       0
  3355 ;;      Totals:         8       0       0       0       0       0       0       0       0
  3356 ;;Total ram usage:        8 bytes
  3357 ;; Hardware stack levels used: 1
  3358 ;; Hardware stack levels required when called: 5
  3359 ;; This function calls:
  3360 ;;		_Recibir
  3361 ;;		i2_TransmitirDatos
  3362 ;; This function is called by:
  3363 ;;		Interrupt level 2
  3364 ;; This function uses a non-reentrant model
  3365 ;;
  3366                           
  3367                           	psect	intcode
  3368   000008                     __pintcode:
  3369                           	callstack 0
  3370   000008                     _ISR:
  3371                           	callstack 20
  3372                           
  3373                           ;incstack = 0
  3374   000008  823C               	bsf	btemp,1,c	;set compiler interrupt flag (level 2)
  3375   00000A  EDFB  F007         	call	int_func,f	;refresh shadow registers
  3376                           
  3377                           	psect	intcode_body
  3378   000FF6                     __pintcode_body:
  3379                           	callstack 20
  3380   000FF6                     int_func:
  3381                           	callstack 20
  3382   000FF6  0006               	pop		; remove dummy address from shadow register refresh
  3383   000FF8  CFF3 F018          	movff	prodl,??_ISR+2
  3384   000FFC  CFF4 F019          	movff	prodh,??_ISR+3
  3385   001000  CFF6 F01A          	movff	tblptrl,??_ISR+4
  3386   001004  CFF7 F01B          	movff	tblptrh,??_ISR+5
  3387   001008  CFF8 F01C          	movff	tblptru,??_ISR+6
  3388   00100C  CFF5 F01D          	movff	tablat,??_ISR+7
  3389                           
  3390                           ;Laboratorio5.c: 317: if(TMR0IF==1){
  3391   001010  A4F2               	btfss	4082,2,c	;volatile
  3392   001012  D00A               	goto	i2l2626
  3393                           
  3394                           ;Laboratorio5.c: 318: TMR0IF=0;
  3395   001014  94F2               	bcf	4082,2,c	;volatile
  3396                           
  3397                           ;Laboratorio5.c: 319: RD4 = !RD4;
  3398   001016  B883               	btfsc	3971,4,c	;volatile
  3399   001018  D002               	goto	i2u153_40
  3400   00101A  8883               	bsf	3971,4,c	;volatile
  3401   00101C  D001               	goto	i2u154_45
  3402   00101E                     i2u153_40:
  3403   00101E  9883               	bcf	3971,4,c	;volatile
  3404   001020                     i2u154_45:
  3405                           
  3406                           ;Laboratorio5.c: 320: TMR0 = 3036;
  3407   001020  0E0B               	movlw	11
  3408   001022  6ED7               	movwf	215,c	;volatile
  3409   001024  0EDC               	movlw	220
  3410   001026  6ED6               	movwf	214,c	;volatile
  3411   001028                     i2l2626:
  3412                           
  3413                           ;Laboratorio5.c: 322: };Laboratorio5.c: 323: if(RCIF && IniFlag == 1){
  3414   001028  AA9E               	btfss	3998,5,c	;volatile
  3415   00102A  D04A               	goto	i2l298
  3416   00102C  0435               	decf	_IniFlag^0,w,c
  3417   00102E  1036               	iorwf	(_IniFlag+1)^0,w,c
  3418   001030  B4D8               	btfsc	status,2,c
  3419   001032  D02D               	goto	i2l2642
  3420   001034  D045               	goto	i2l298
  3421   001036                     i2l2632:
  3422                           
  3423                           ;Laboratorio5.c: 326: TransmitirDatos(0, 0);
  3424   001036  0E00               	movlw	0
  3425   001038  6E0B               	movwf	(i2TransmitirDatos@Ent1+1)^0,c
  3426   00103A  0E00               	movlw	0
  3427   00103C  6E0A               	movwf	i2TransmitirDatos@Ent1^0,c
  3428   00103E  0E00               	movlw	0
  3429   001040  6E0D               	movwf	(i2TransmitirDatos@Ent2+1)^0,c
  3430   001042  0E00               	movlw	0
  3431   001044  6E0C               	movwf	i2TransmitirDatos@Ent2^0,c
  3432   001046  EC5A  F005         	call	i2_TransmitirDatos	;wreg free
  3433                           
  3434                           ;Laboratorio5.c: 327: break;
  3435   00104A  D02F               	goto	i2l2644
  3436   00104C                     i2l2634:
  3437                           
  3438                           ;Laboratorio5.c: 329: TransmitirDatos(0, 1);
  3439   00104C  0E00               	movlw	0
  3440   00104E  6E0B               	movwf	(i2TransmitirDatos@Ent1+1)^0,c
  3441   001050  0E00               	movlw	0
  3442   001052  6E0A               	movwf	i2TransmitirDatos@Ent1^0,c
  3443   001054  0E00               	movlw	0
  3444   001056  6E0D               	movwf	(i2TransmitirDatos@Ent2+1)^0,c
  3445   001058  0E01               	movlw	1
  3446   00105A  6E0C               	movwf	i2TransmitirDatos@Ent2^0,c
  3447   00105C  EC5A  F005         	call	i2_TransmitirDatos	;wreg free
  3448                           
  3449                           ;Laboratorio5.c: 330: break;
  3450   001060  D024               	goto	i2l2644
  3451   001062                     i2l2636:
  3452                           
  3453                           ;Laboratorio5.c: 332: TransmitirDatos(1, 0);
  3454   001062  0E00               	movlw	0
  3455   001064  6E0B               	movwf	(i2TransmitirDatos@Ent1+1)^0,c
  3456   001066  0E01               	movlw	1
  3457   001068  6E0A               	movwf	i2TransmitirDatos@Ent1^0,c
  3458   00106A  0E00               	movlw	0
  3459   00106C  6E0D               	movwf	(i2TransmitirDatos@Ent2+1)^0,c
  3460   00106E  0E00               	movlw	0
  3461   001070  6E0C               	movwf	i2TransmitirDatos@Ent2^0,c
  3462   001072  EC5A  F005         	call	i2_TransmitirDatos	;wreg free
  3463                           
  3464                           ;Laboratorio5.c: 333: break;
  3465   001076  D019               	goto	i2l2644
  3466   001078                     i2l2638:
  3467                           
  3468                           ;Laboratorio5.c: 335: TransmitirDatos(1, 1);
  3469   001078  0E00               	movlw	0
  3470   00107A  6E0B               	movwf	(i2TransmitirDatos@Ent1+1)^0,c
  3471   00107C  0E01               	movlw	1
  3472   00107E  6E0A               	movwf	i2TransmitirDatos@Ent1^0,c
  3473   001080  0E00               	movlw	0
  3474   001082  6E0D               	movwf	(i2TransmitirDatos@Ent2+1)^0,c
  3475   001084  0E01               	movlw	1
  3476   001086  6E0C               	movwf	i2TransmitirDatos@Ent2^0,c
  3477   001088  EC5A  F005         	call	i2_TransmitirDatos	;wreg free
  3478                           
  3479                           ;Laboratorio5.c: 336: break;
  3480   00108C  D00E               	goto	i2l2644
  3481   00108E                     i2l2642:
  3482   00108E  EC4A  F00C         	call	_Recibir	;wreg free
  3483                           
  3484                           ; Switch size 1, requested type "simple"
  3485                           ; Number of cases is 4, Range of values is 67 to 82
  3486                           ; switch strategies available:
  3487                           ; Name         Instructions Cycles
  3488                           ; simple_byte           13     7 (average)
  3489                           ;	Chosen strategy is simple_byte
  3490   001092  0A43               	xorlw	67	; case 67
  3491   001094  B4D8               	btfsc	status,2,c
  3492   001096  D7CF               	goto	i2l2632
  3493   001098  0A05               	xorlw	5	; case 70
  3494   00109A  B4D8               	btfsc	status,2,c
  3495   00109C  D7ED               	goto	i2l2638
  3496   00109E  0A0D               	xorlw	13	; case 75
  3497   0010A0  B4D8               	btfsc	status,2,c
  3498   0010A2  D7D4               	goto	i2l2634
  3499   0010A4  0A19               	xorlw	25	; case 82
  3500   0010A6  B4D8               	btfsc	status,2,c
  3501   0010A8  D7DC               	goto	i2l2636
  3502   0010AA                     i2l2644:
  3503                           
  3504                           ;Laboratorio5.c: 341: _delay((unsigned long)((1000)*(8000000/4000.0)));
  3505   0010AA  0E0B               	movlw	11
  3506   0010AC  6E17               	movwf	(??_ISR+1)^0,c
  3507   0010AE  0E26               	movlw	38
  3508   0010B0  6E16               	movwf	??_ISR^0,c
  3509   0010B2  0E5E               	movlw	94
  3510   0010B4                     i2u176_47:
  3511   0010B4  2EE8               	decfsz	wreg,f,c
  3512   0010B6  D7FE               	bra	i2u176_47
  3513   0010B8  2E16               	decfsz	??_ISR^0,f,c
  3514   0010BA  D7FC               	bra	i2u176_47
  3515   0010BC  2E17               	decfsz	(??_ISR+1)^0,f,c
  3516   0010BE  D7FA               	bra	i2u176_47
  3517   0010C0                     i2l298:
  3518   0010C0  C01D  FFF5         	movff	??_ISR+7,tablat
  3519   0010C4  C01C  FFF8         	movff	??_ISR+6,tblptru
  3520   0010C8  C01B  FFF7         	movff	??_ISR+5,tblptrh
  3521   0010CC  C01A  FFF6         	movff	??_ISR+4,tblptrl
  3522   0010D0  C019  FFF4         	movff	??_ISR+3,prodh
  3523   0010D4  C018  FFF3         	movff	??_ISR+2,prodl
  3524   0010D8  923C               	bcf	btemp,1,c	;clear compiler interrupt flag (level 2)
  3525   0010DA  0011               	retfie		f
  3526   0010DC                     __end_of_ISR:
  3527                           	callstack 0
  3528                           
  3529 ;; *************** function i2_TransmitirDatos *****************
  3530 ;; Defined at:
  3531 ;;		line 175 in file "Laboratorio5.c"
  3532 ;; Parameters:    Size  Location     Type
  3533 ;;  Ent1            2    9[COMRAM] unsigned int 
  3534 ;;  Ent2            2   11[COMRAM] unsigned int 
  3535 ;; Auto vars:     Size  Location     Type
  3536 ;;  TempC           2   19[COMRAM] unsigned int 
  3537 ;;  Simb            2   17[COMRAM] unsigned int 
  3538 ;;  n               2   15[COMRAM] unsigned int 
  3539 ;;  HumC            2    0        unsigned int 
  3540 ;; Return value:  Size  Location     Type
  3541 ;;                  1    wreg      void 
  3542 ;; Registers used:
  3543 ;;		wreg, status,2, status,0, tblptrl, tblptrh, tblptru, prodl, prodh, cstack
  3544 ;; Tracked objects:
  3545 ;;		On entry : 0/0
  3546 ;;		On exit  : 0/0
  3547 ;;		Unchanged: 0/0
  3548 ;; Data sizes:     COMRAM   BANK0   BANK1   BANK2   BANK3   BANK4   BANK5   BANK6   BANK7
  3549 ;;      Params:         4       0       0       0       0       0       0       0       0
  3550 ;;      Locals:         6       0       0       0       0       0       0       0       0
  3551 ;;      Temps:          2       0       0       0       0       0       0       0       0
  3552 ;;      Totals:        12       0       0       0       0       0       0       0       0
  3553 ;;Total ram usage:       12 bytes
  3554 ;; Hardware stack levels used: 1
  3555 ;; Hardware stack levels required when called: 4
  3556 ;; This function calls:
  3557 ;;		i2_BorraLCD
  3558 ;;		i2_DireccionaLCD
  3559 ;;		i2_EscribeLCD_c
  3560 ;;		i2_MensajeLCD_Word
  3561 ;;		i2_Transmitir
  3562 ;;		i2___awdiv
  3563 ;;		i2___lbdiv
  3564 ;;		i2___lbmod
  3565 ;;		i2___lwdiv
  3566 ;;		i2___lwmod
  3567 ;;		i2___wmul
  3568 ;; This function is called by:
  3569 ;;		_ISR
  3570 ;; This function uses a non-reentrant model
  3571 ;;
  3572                           
  3573                           	psect	text26
  3574   000AB4                     __ptext26:
  3575                           	callstack 0
  3576   000AB4                     i2_TransmitirDatos:
  3577                           	callstack 20
  3578                           
  3579                           ;Laboratorio5.c: 176: unsigned int n = Ent1 * 10 + Ent2, TempC = Temp, HumC = Hum;
  3580                           
  3581                           ;incstack = 0
  3582   000AB4  C00A  F001         	movff	i2TransmitirDatos@Ent1,i2___wmul@multiplier
  3583   000AB8  C00B  F002         	movff	i2TransmitirDatos@Ent1+1,i2___wmul@multiplier+1
  3584   000ABC  0E00               	movlw	0
  3585   000ABE  6E04               	movwf	(i2___wmul@multiplicand+1)^0,c
  3586   000AC0  0E0A               	movlw	10
  3587   000AC2  6E03               	movwf	i2___wmul@multiplicand^0,c
  3588   000AC4  ECAF  F00B         	call	i2___wmul	;wreg free
  3589   000AC8  500C               	movf	i2TransmitirDatos@Ent2^0,w,c
  3590   000ACA  2401               	addwf	?i2___wmul^0,w,c
  3591   000ACC  6E10               	movwf	i2TransmitirDatos@n^0,c
  3592   000ACE  500D               	movf	(i2TransmitirDatos@Ent2+1)^0,w,c
  3593   000AD0  2002               	addwfc	(?i2___wmul+1)^0,w,c
  3594   000AD2  6E11               	movwf	(i2TransmitirDatos@n+1)^0,c
  3595   000AD4  C03A  F014         	movff	_Temp,i2TransmitirDatos@TempC
  3596   000AD8  6A15               	clrf	(i2TransmitirDatos@TempC+1)^0,c
  3597                           
  3598                           ;Laboratorio5.c: 177: unsigned int Simb = 67;
  3599   000ADA  0E00               	movlw	0
  3600   000ADC  6E13               	movwf	(i2TransmitirDatos@Simb+1)^0,c
  3601   000ADE  0E43               	movlw	67
  3602   000AE0  6E12               	movwf	i2TransmitirDatos@Simb^0,c
  3603                           
  3604                           ;Laboratorio5.c: 178: BorraLCD();
  3605   000AE2  EC1F  F00C         	call	i2_BorraLCD	;wreg free
  3606                           
  3607                           ;Laboratorio5.c: 179: switch (n) {
  3608   000AE6  D03E               	goto	i2l2466
  3609   000AE8                     i2l245:
  3610                           
  3611                           ;Laboratorio5.c: 181: TempC = Temp;
  3612   000AE8  C03A  F014         	movff	_Temp,i2TransmitirDatos@TempC
  3613   000AEC  6A15               	clrf	(i2TransmitirDatos@TempC+1)^0,c
  3614                           
  3615                           ;Laboratorio5.c: 182: Simb = 67;
  3616   000AEE  0E00               	movlw	0
  3617   000AF0  6E13               	movwf	(i2TransmitirDatos@Simb+1)^0,c
  3618   000AF2  0E43               	movlw	67
  3619   000AF4  D035               	goto	L9
  3620   000AF6                     i2l2452:
  3621                           
  3622                           ;Laboratorio5.c: 185: TempC = Temp + 273;
  3623   000AF6  0E11               	movlw	17
  3624   000AF8  243A               	addwf	_Temp^0,w,c
  3625   000AFA  6E14               	movwf	i2TransmitirDatos@TempC^0,c
  3626   000AFC  6A15               	clrf	(i2TransmitirDatos@TempC+1)^0,c
  3627   000AFE  0E01               	movlw	1
  3628   000B00  2215               	addwfc	(i2TransmitirDatos@TempC+1)^0,f,c
  3629                           
  3630                           ;Laboratorio5.c: 186: Simb = 75;
  3631   000B02  0E00               	movlw	0
  3632   000B04  6E13               	movwf	(i2TransmitirDatos@Simb+1)^0,c
  3633   000B06  0E4B               	movlw	75
  3634   000B08  D02B               	goto	L9
  3635   000B0A                     i2l2456:
  3636                           
  3637                           ;Laboratorio5.c: 189: TempC = Temp * 9 / 5 + 492;
  3638   000B0A  503A               	movf	_Temp^0,w,c
  3639   000B0C  0D09               	mullw	9
  3640   000B0E  CFF3 F001          	movff	prodl,i2___awdiv@dividend
  3641   000B12  CFF4 F002          	movff	prodh,i2___awdiv@dividend+1
  3642   000B16  0E00               	movlw	0
  3643   000B18  6E04               	movwf	(i2___awdiv@divisor+1)^0,c
  3644   000B1A  0E05               	movlw	5
  3645   000B1C  6E03               	movwf	i2___awdiv@divisor^0,c
  3646   000B1E  ECFE  F008         	call	i2___awdiv	;wreg free
  3647   000B22  0EEC               	movlw	236
  3648   000B24  2401               	addwf	?i2___awdiv^0,w,c
  3649   000B26  6E14               	movwf	i2TransmitirDatos@TempC^0,c
  3650   000B28  0E01               	movlw	1
  3651   000B2A  2002               	addwfc	(?i2___awdiv+1)^0,w,c
  3652   000B2C  6E15               	movwf	(i2TransmitirDatos@TempC+1)^0,c
  3653                           
  3654                           ;Laboratorio5.c: 190: Simb = 82;
  3655   000B2E  0E00               	movlw	0
  3656   000B30  6E13               	movwf	(i2TransmitirDatos@Simb+1)^0,c
  3657   000B32  0E52               	movlw	82
  3658   000B34  D015               	goto	L9
  3659   000B36                     i2l2460:
  3660                           
  3661                           ;Laboratorio5.c: 193: TempC = Temp * 9 / 5 + 32;
  3662   000B36  503A               	movf	_Temp^0,w,c
  3663   000B38  0D09               	mullw	9
  3664   000B3A  CFF3 F001          	movff	prodl,i2___awdiv@dividend
  3665   000B3E  CFF4 F002          	movff	prodh,i2___awdiv@dividend+1
  3666   000B42  0E00               	movlw	0
  3667   000B44  6E04               	movwf	(i2___awdiv@divisor+1)^0,c
  3668   000B46  0E05               	movlw	5
  3669   000B48  6E03               	movwf	i2___awdiv@divisor^0,c
  3670   000B4A  ECFE  F008         	call	i2___awdiv	;wreg free
  3671   000B4E  0E20               	movlw	32
  3672   000B50  2401               	addwf	?i2___awdiv^0,w,c
  3673   000B52  6E14               	movwf	i2TransmitirDatos@TempC^0,c
  3674   000B54  0E00               	movlw	0
  3675   000B56  2002               	addwfc	(?i2___awdiv+1)^0,w,c
  3676   000B58  6E15               	movwf	(i2TransmitirDatos@TempC+1)^0,c
  3677                           
  3678                           ;Laboratorio5.c: 194: Simb = 70;
  3679   000B5A  0E00               	movlw	0
  3680   000B5C  6E13               	movwf	(i2TransmitirDatos@Simb+1)^0,c
  3681   000B5E  0E46               	movlw	70
  3682   000B60                     L9:
  3683   000B60  6E12               	movwf	i2TransmitirDatos@Simb^0,c
  3684                           
  3685                           ;Laboratorio5.c: 195: break;
  3686   000B62  D015               	goto	i2l2468
  3687   000B64                     i2l2466:
  3688   000B64  C010  F00E         	movff	i2TransmitirDatos@n,??i2_TransmitirDatos
  3689   000B68  C011  F00F         	movff	i2TransmitirDatos@n+1,??i2_TransmitirDatos+1
  3690                           
  3691                           ; Switch on 2 bytes has been partitioned into a top level switch of size 1, and 1 sub-sw
      +                          itches
  3692                           ; Switch size 1, requested type "simple"
  3693                           ; Number of cases is 1, Range of values is 0 to 0
  3694                           ; switch strategies available:
  3695                           ; Name         Instructions Cycles
  3696                           ; simple_byte            4     3 (average)
  3697                           ;	Chosen strategy is simple_byte
  3698   000B6C  500F               	movf	(??i2_TransmitirDatos+1)^0,w,c
  3699   000B6E  0A00               	xorlw	0	; case 0
  3700   000B70  A4D8               	btfss	status,2,c
  3701   000B72  D00D               	goto	i2l2468
  3702                           
  3703                           ; Switch size 1, requested type "simple"
  3704                           ; Number of cases is 4, Range of values is 0 to 11
  3705                           ; switch strategies available:
  3706                           ; Name         Instructions Cycles
  3707                           ; simple_byte           13     7 (average)
  3708                           ;	Chosen strategy is simple_byte
  3709   000B74  500E               	movf	??i2_TransmitirDatos^0,w,c
  3710   000B76  0A00               	xorlw	0	; case 0
  3711   000B78  B4D8               	btfsc	status,2,c
  3712   000B7A  D7B6               	goto	i2l245
  3713   000B7C  0A01               	xorlw	1	; case 1
  3714   000B7E  B4D8               	btfsc	status,2,c
  3715   000B80  D7BA               	goto	i2l2452
  3716   000B82  0A0B               	xorlw	11	; case 10
  3717   000B84  B4D8               	btfsc	status,2,c
  3718   000B86  D7C1               	goto	i2l2456
  3719   000B88  0A01               	xorlw	1	; case 11
  3720   000B8A  B4D8               	btfsc	status,2,c
  3721   000B8C  D7D4               	goto	i2l2460
  3722   000B8E                     i2l2468:
  3723                           
  3724                           ;Laboratorio5.c: 197: Transmitir('T');
  3725   000B8E  0E54               	movlw	84
  3726   000B90  EC44  F00C         	call	i2_Transmitir
  3727                           
  3728                           ;Laboratorio5.c: 198: Transmitir('e');
  3729   000B94  0E65               	movlw	101
  3730   000B96  EC44  F00C         	call	i2_Transmitir
  3731                           
  3732                           ;Laboratorio5.c: 199: Transmitir('m');
  3733   000B9A  0E6D               	movlw	109
  3734   000B9C  EC44  F00C         	call	i2_Transmitir
  3735                           
  3736                           ;Laboratorio5.c: 200: Transmitir('p');
  3737   000BA0  0E70               	movlw	112
  3738   000BA2  EC44  F00C         	call	i2_Transmitir
  3739                           
  3740                           ;Laboratorio5.c: 201: Transmitir(':');
  3741   000BA6  0E3A               	movlw	58
  3742   000BA8  EC44  F00C         	call	i2_Transmitir
  3743                           
  3744                           ;Laboratorio5.c: 202: Transmitir(' ');
  3745   000BAC  0E20               	movlw	32
  3746   000BAE  EC44  F00C         	call	i2_Transmitir
  3747                           
  3748                           ;Laboratorio5.c: 204: MensajeLCD_Word("Temp:");
  3749   000BB2  0E18               	movlw	low STR_3
  3750   000BB4  6E06               	movwf	i2MensajeLCD_Word@a^0,c
  3751   000BB6  EC48  F00A         	call	i2_MensajeLCD_Word	;wreg free
  3752                           
  3753                           ;Laboratorio5.c: 205: if (TempC / 100 > 0) {
  3754   000BBA  C014  F001         	movff	i2TransmitirDatos@TempC,i2___lwdiv@dividend
  3755   000BBE  C015  F002         	movff	i2TransmitirDatos@TempC+1,i2___lwdiv@dividend+1
  3756   000BC2  0E00               	movlw	0
  3757   000BC4  6E04               	movwf	(i2___lwdiv@divisor+1)^0,c
  3758   000BC6  0E64               	movlw	100
  3759   000BC8  6E03               	movwf	i2___lwdiv@divisor^0,c
  3760   000BCA  ECF8  F009         	call	i2___lwdiv	;wreg free
  3761   000BCE  5001               	movf	?i2___lwdiv^0,w,c
  3762   000BD0  1002               	iorwf	(?i2___lwdiv+1)^0,w,c
  3763   000BD2  B4D8               	btfsc	status,2,c
  3764   000BD4  D02A               	goto	i2l250
  3765                           
  3766                           ;Laboratorio5.c: 206: Transmitir(TempC / 100 + 48);
  3767   000BD6  C014  F001         	movff	i2TransmitirDatos@TempC,i2___lwdiv@dividend
  3768   000BDA  C015  F002         	movff	i2TransmitirDatos@TempC+1,i2___lwdiv@dividend+1
  3769   000BDE  0E00               	movlw	0
  3770   000BE0  6E04               	movwf	(i2___lwdiv@divisor+1)^0,c
  3771   000BE2  0E64               	movlw	100
  3772   000BE4  6E03               	movwf	i2___lwdiv@divisor^0,c
  3773   000BE6  ECF8  F009         	call	i2___lwdiv	;wreg free
  3774   000BEA  5001               	movf	?i2___lwdiv^0,w,c
  3775   000BEC  0F30               	addlw	48
  3776   000BEE  EC44  F00C         	call	i2_Transmitir
  3777                           
  3778                           ;Laboratorio5.c: 207: EscribeLCD_c(TempC / 100 + 48);
  3779   000BF2  C014  F001         	movff	i2TransmitirDatos@TempC,i2___lwdiv@dividend
  3780   000BF6  C015  F002         	movff	i2TransmitirDatos@TempC+1,i2___lwdiv@dividend+1
  3781   000BFA  0E00               	movlw	0
  3782   000BFC  6E04               	movwf	(i2___lwdiv@divisor+1)^0,c
  3783   000BFE  0E64               	movlw	100
  3784   000C00  6E03               	movwf	i2___lwdiv@divisor^0,c
  3785   000C02  ECF8  F009         	call	i2___lwdiv	;wreg free
  3786   000C06  5001               	movf	?i2___lwdiv^0,w,c
  3787   000C08  0F30               	addlw	48
  3788   000C0A  ECF5  F00B         	call	i2_EscribeLCD_c
  3789                           
  3790                           ;Laboratorio5.c: 208: TempC = TempC % 100;
  3791   000C0E  C014  F001         	movff	i2TransmitirDatos@TempC,i2___lwmod@dividend
  3792   000C12  C015  F002         	movff	i2TransmitirDatos@TempC+1,i2___lwmod@dividend+1
  3793   000C16  0E00               	movlw	0
  3794   000C18  6E04               	movwf	(i2___lwmod@divisor+1)^0,c
  3795   000C1A  0E64               	movlw	100
  3796   000C1C  6E03               	movwf	i2___lwmod@divisor^0,c
  3797   000C1E  ECD6  F00A         	call	i2___lwmod	;wreg free
  3798   000C22  C001  F014         	movff	?i2___lwmod,i2TransmitirDatos@TempC
  3799   000C26  C002  F015         	movff	?i2___lwmod+1,i2TransmitirDatos@TempC+1
  3800   000C2A                     i2l250:
  3801                           
  3802                           ;Laboratorio5.c: 209: };Laboratorio5.c: 210: Transmitir(TempC / 10 + 48);
  3803   000C2A  C014  F001         	movff	i2TransmitirDatos@TempC,i2___lwdiv@dividend
  3804   000C2E  C015  F002         	movff	i2TransmitirDatos@TempC+1,i2___lwdiv@dividend+1
  3805   000C32  0E00               	movlw	0
  3806   000C34  6E04               	movwf	(i2___lwdiv@divisor+1)^0,c
  3807   000C36  0E0A               	movlw	10
  3808   000C38  6E03               	movwf	i2___lwdiv@divisor^0,c
  3809   000C3A  ECF8  F009         	call	i2___lwdiv	;wreg free
  3810   000C3E  5001               	movf	?i2___lwdiv^0,w,c
  3811   000C40  0F30               	addlw	48
  3812   000C42  EC44  F00C         	call	i2_Transmitir
  3813                           
  3814                           ;Laboratorio5.c: 211: Transmitir(TempC % 10 + 48);
  3815   000C46  C014  F001         	movff	i2TransmitirDatos@TempC,i2___lwmod@dividend
  3816   000C4A  C015  F002         	movff	i2TransmitirDatos@TempC+1,i2___lwmod@dividend+1
  3817   000C4E  0E00               	movlw	0
  3818   000C50  6E04               	movwf	(i2___lwmod@divisor+1)^0,c
  3819   000C52  0E0A               	movlw	10
  3820   000C54  6E03               	movwf	i2___lwmod@divisor^0,c
  3821   000C56  ECD6  F00A         	call	i2___lwmod	;wreg free
  3822   000C5A  5001               	movf	?i2___lwmod^0,w,c
  3823   000C5C  0F30               	addlw	48
  3824   000C5E  EC44  F00C         	call	i2_Transmitir
  3825                           
  3826                           ;Laboratorio5.c: 212: Transmitir(167);
  3827   000C62  0EA7               	movlw	167
  3828   000C64  EC44  F00C         	call	i2_Transmitir
  3829                           
  3830                           ;Laboratorio5.c: 213: Transmitir(Simb);
  3831   000C68  5012               	movf	i2TransmitirDatos@Simb^0,w,c
  3832   000C6A  EC44  F00C         	call	i2_Transmitir
  3833                           
  3834                           ;Laboratorio5.c: 214: Transmitir(' ');
  3835   000C6E  0E20               	movlw	32
  3836   000C70  EC44  F00C         	call	i2_Transmitir
  3837                           
  3838                           ;Laboratorio5.c: 215: Transmitir('\n');
  3839   000C74  0E0A               	movlw	10
  3840   000C76  EC44  F00C         	call	i2_Transmitir
  3841                           
  3842                           ;Laboratorio5.c: 216: Transmitir('H');
  3843   000C7A  0E48               	movlw	72
  3844   000C7C  EC44  F00C         	call	i2_Transmitir
  3845                           
  3846                           ;Laboratorio5.c: 217: Transmitir('u');
  3847   000C80  0E75               	movlw	117
  3848   000C82  EC44  F00C         	call	i2_Transmitir
  3849                           
  3850                           ;Laboratorio5.c: 218: Transmitir('m');
  3851   000C86  0E6D               	movlw	109
  3852   000C88  EC44  F00C         	call	i2_Transmitir
  3853                           
  3854                           ;Laboratorio5.c: 219: Transmitir(':');
  3855   000C8C  0E3A               	movlw	58
  3856   000C8E  EC44  F00C         	call	i2_Transmitir
  3857                           
  3858                           ;Laboratorio5.c: 220: Transmitir(' ');
  3859   000C92  0E20               	movlw	32
  3860   000C94  EC44  F00C         	call	i2_Transmitir
  3861                           
  3862                           ;Laboratorio5.c: 221: Transmitir(Hum / 10 + 48);
  3863   000C98  0E0A               	movlw	10
  3864   000C9A  6E01               	movwf	i2___lbdiv@divisor^0,c
  3865   000C9C  5039               	movf	_Hum^0,w,c
  3866   000C9E  EC14  F00B         	call	i2___lbdiv
  3867   000CA2  0F30               	addlw	48
  3868   000CA4  EC44  F00C         	call	i2_Transmitir
  3869                           
  3870                           ;Laboratorio5.c: 222: Transmitir(Hum % 10 + 48);
  3871   000CA8  0E0A               	movlw	10
  3872   000CAA  6E01               	movwf	i2___lbmod@divisor^0,c
  3873   000CAC  5039               	movf	_Hum^0,w,c
  3874   000CAE  EC74  F00B         	call	i2___lbmod
  3875   000CB2  0F30               	addlw	48
  3876   000CB4  EC44  F00C         	call	i2_Transmitir
  3877                           
  3878                           ;Laboratorio5.c: 223: Transmitir(' ');
  3879   000CB8  0E20               	movlw	32
  3880   000CBA  EC44  F00C         	call	i2_Transmitir
  3881                           
  3882                           ;Laboratorio5.c: 224: Transmitir('%');
  3883   000CBE  0E25               	movlw	37
  3884   000CC0  EC44  F00C         	call	i2_Transmitir
  3885                           
  3886                           ;Laboratorio5.c: 225: Transmitir('\n');
  3887   000CC4  0E0A               	movlw	10
  3888   000CC6  EC44  F00C         	call	i2_Transmitir
  3889                           
  3890                           ;Laboratorio5.c: 226: Transmitir(' ');
  3891   000CCA  0E20               	movlw	32
  3892   000CCC  EC44  F00C         	call	i2_Transmitir
  3893                           
  3894                           ;Laboratorio5.c: 232: EscribeLCD_c(TempC / 10 + 48);
  3895   000CD0  C014  F001         	movff	i2TransmitirDatos@TempC,i2___lwdiv@dividend
  3896   000CD4  C015  F002         	movff	i2TransmitirDatos@TempC+1,i2___lwdiv@dividend+1
  3897   000CD8  0E00               	movlw	0
  3898   000CDA  6E04               	movwf	(i2___lwdiv@divisor+1)^0,c
  3899   000CDC  0E0A               	movlw	10
  3900   000CDE  6E03               	movwf	i2___lwdiv@divisor^0,c
  3901   000CE0  ECF8  F009         	call	i2___lwdiv	;wreg free
  3902   000CE4  5001               	movf	?i2___lwdiv^0,w,c
  3903   000CE6  0F30               	addlw	48
  3904   000CE8  ECF5  F00B         	call	i2_EscribeLCD_c
  3905                           
  3906                           ;Laboratorio5.c: 233: EscribeLCD_c(TempC % 10 + 48);
  3907   000CEC  C014  F001         	movff	i2TransmitirDatos@TempC,i2___lwmod@dividend
  3908   000CF0  C015  F002         	movff	i2TransmitirDatos@TempC+1,i2___lwmod@dividend+1
  3909   000CF4  0E00               	movlw	0
  3910   000CF6  6E04               	movwf	(i2___lwmod@divisor+1)^0,c
  3911   000CF8  0E0A               	movlw	10
  3912   000CFA  6E03               	movwf	i2___lwmod@divisor^0,c
  3913   000CFC  ECD6  F00A         	call	i2___lwmod	;wreg free
  3914   000D00  5001               	movf	?i2___lwmod^0,w,c
  3915   000D02  0F30               	addlw	48
  3916   000D04  ECF5  F00B         	call	i2_EscribeLCD_c
  3917                           
  3918                           ;Laboratorio5.c: 234: EscribeLCD_c(Simb);
  3919   000D08  5012               	movf	i2TransmitirDatos@Simb^0,w,c
  3920   000D0A  ECF5  F00B         	call	i2_EscribeLCD_c
  3921                           
  3922                           ;Laboratorio5.c: 235: DireccionaLCD(192);
  3923   000D0E  0EC0               	movlw	192
  3924   000D10  EC00  F00C         	call	i2_DireccionaLCD
  3925                           
  3926                           ;Laboratorio5.c: 236: MensajeLCD_Word("Hum:");
  3927   000D14  0E1E               	movlw	low STR_4
  3928   000D16  6E06               	movwf	i2MensajeLCD_Word@a^0,c
  3929   000D18  EC48  F00A         	call	i2_MensajeLCD_Word	;wreg free
  3930                           
  3931                           ;Laboratorio5.c: 237: EscribeLCD_c(Hum / 10 + 48);
  3932   000D1C  0E0A               	movlw	10
  3933   000D1E  6E01               	movwf	i2___lbdiv@divisor^0,c
  3934   000D20  5039               	movf	_Hum^0,w,c
  3935   000D22  EC14  F00B         	call	i2___lbdiv
  3936   000D26  0F30               	addlw	48
  3937   000D28  ECF5  F00B         	call	i2_EscribeLCD_c
  3938                           
  3939                           ;Laboratorio5.c: 238: EscribeLCD_c(Hum % 10 + 48);
  3940   000D2C  0E0A               	movlw	10
  3941   000D2E  6E01               	movwf	i2___lbmod@divisor^0,c
  3942   000D30  5039               	movf	_Hum^0,w,c
  3943   000D32  EC74  F00B         	call	i2___lbmod
  3944   000D36  0F30               	addlw	48
  3945   000D38  ECF5  F00B         	call	i2_EscribeLCD_c
  3946                           
  3947                           ;Laboratorio5.c: 239: EscribeLCD_c('%');
  3948   000D3C  0E25               	movlw	37
  3949   000D3E  ECF5  F00B         	call	i2_EscribeLCD_c
  3950   000D42  0012               	return		;funcret
  3951   000D44                     __end_ofi2_TransmitirDatos:
  3952                           	callstack 0
  3953                           
  3954 ;; *************** function i2___wmul *****************
  3955 ;; Defined at:
  3956 ;;		line 15 in file "C:\Program Files\Microchip\xc8\v2.40\pic\sources\c90\common\Umul16.c"
  3957 ;; Parameters:    Size  Location     Type
  3958 ;;  multiplier      2    0[COMRAM] unsigned int 
  3959 ;;  multiplicand    2    2[COMRAM] unsigned int 
  3960 ;; Auto vars:     Size  Location     Type
  3961 ;;  product         2    4[COMRAM] unsigned int 
  3962 ;; Return value:  Size  Location     Type
  3963 ;;                  2    0[COMRAM] unsigned int 
  3964 ;; Registers used:
  3965 ;;		wreg, status,2, status,0, prodl, prodh
  3966 ;; Tracked objects:
  3967 ;;		On entry : 0/0
  3968 ;;		On exit  : 0/0
  3969 ;;		Unchanged: 0/0
  3970 ;; Data sizes:     COMRAM   BANK0   BANK1   BANK2   BANK3   BANK4   BANK5   BANK6   BANK7
  3971 ;;      Params:         4       0       0       0       0       0       0       0       0
  3972 ;;      Locals:         2       0       0       0       0       0       0       0       0
  3973 ;;      Temps:          0       0       0       0       0       0       0       0       0
  3974 ;;      Totals:         6       0       0       0       0       0       0       0       0
  3975 ;;Total ram usage:        6 bytes
  3976 ;; Hardware stack levels used: 1
  3977 ;; This function calls:
  3978 ;;		Nothing
  3979 ;; This function is called by:
  3980 ;;		i2_TransmitirDatos
  3981 ;; This function uses a non-reentrant model
  3982 ;;
  3983                           
  3984                           	psect	text27
  3985   00175E                     __ptext27:
  3986                           	callstack 0
  3987   00175E                     i2___wmul:
  3988                           	callstack 23
  3989                           
  3990                           ;incstack = 0
  3991   00175E  5001               	movf	i2___wmul@multiplier^0,w,c
  3992   001760  0203               	mulwf	i2___wmul@multiplicand^0,c
  3993   001762  CFF3 F005          	movff	prodl,i2___wmul@product
  3994   001766  CFF4 F006          	movff	prodh,i2___wmul@product+1
  3995   00176A  5001               	movf	i2___wmul@multiplier^0,w,c
  3996   00176C  0204               	mulwf	(i2___wmul@multiplicand+1)^0,c
  3997   00176E  50F3               	movf	243,w,c
  3998   001770  2606               	addwf	(i2___wmul@product+1)^0,f,c
  3999   001772  5002               	movf	(i2___wmul@multiplier+1)^0,w,c
  4000   001774  0203               	mulwf	i2___wmul@multiplicand^0,c
  4001   001776  50F3               	movf	243,w,c
  4002   001778  2606               	addwf	(i2___wmul@product+1)^0,f,c
  4003   00177A  C005  F001         	movff	i2___wmul@product,?i2___wmul
  4004   00177E  C006  F002         	movff	i2___wmul@product+1,?i2___wmul+1
  4005   001782  0012               	return		;funcret
  4006   001784                     __end_ofi2___wmul:
  4007                           	callstack 0
  4008                           
  4009 ;; *************** function i2___lwmod *****************
  4010 ;; Defined at:
  4011 ;;		line 7 in file "C:\Program Files\Microchip\xc8\v2.40\pic\sources\c90\common\lwmod.c"
  4012 ;; Parameters:    Size  Location     Type
  4013 ;;  dividend        2    0[COMRAM] unsigned int 
  4014 ;;  divisor         2    2[COMRAM] unsigned int 
  4015 ;; Auto vars:     Size  Location     Type
  4016 ;;  counter         1    4[COMRAM] unsigned char 
  4017 ;; Return value:  Size  Location     Type
  4018 ;;                  2    0[COMRAM] unsigned int 
  4019 ;; Registers used:
  4020 ;;		wreg, status,2, status,0
  4021 ;; Tracked objects:
  4022 ;;		On entry : 0/0
  4023 ;;		On exit  : 0/0
  4024 ;;		Unchanged: 0/0
  4025 ;; Data sizes:     COMRAM   BANK0   BANK1   BANK2   BANK3   BANK4   BANK5   BANK6   BANK7
  4026 ;;      Params:         4       0       0       0       0       0       0       0       0
  4027 ;;      Locals:         1       0       0       0       0       0       0       0       0
  4028 ;;      Temps:          0       0       0       0       0       0       0       0       0
  4029 ;;      Totals:         5       0       0       0       0       0       0       0       0
  4030 ;;Total ram usage:        5 bytes
  4031 ;; Hardware stack levels used: 1
  4032 ;; This function calls:
  4033 ;;		Nothing
  4034 ;; This function is called by:
  4035 ;;		i2_TransmitirDatos
  4036 ;; This function uses a non-reentrant model
  4037 ;;
  4038                           
  4039                           	psect	text28
  4040   0015AC                     __ptext28:
  4041                           	callstack 0
  4042   0015AC                     i2___lwmod:
  4043                           	callstack 23
  4044                           
  4045                           ;incstack = 0
  4046   0015AC  5003               	movf	i2___lwmod@divisor^0,w,c
  4047   0015AE  1004               	iorwf	(i2___lwmod@divisor+1)^0,w,c
  4048   0015B0  B4D8               	btfsc	status,2,c
  4049   0015B2  D018               	goto	i2l790
  4050   0015B4  0E01               	movlw	1
  4051   0015B6  6E05               	movwf	i2___lwmod@counter^0,c
  4052   0015B8  D004               	goto	i2l2286
  4053   0015BA                     i2l2284:
  4054   0015BA  90D8               	bcf	status,0,c
  4055   0015BC  3603               	rlcf	i2___lwmod@divisor^0,f,c
  4056   0015BE  3604               	rlcf	(i2___lwmod@divisor+1)^0,f,c
  4057   0015C0  2A05               	incf	i2___lwmod@counter^0,f,c
  4058   0015C2                     i2l2286:
  4059   0015C2  AE04               	btfss	(i2___lwmod@divisor+1)^0,7,c
  4060   0015C4  D7FA               	goto	i2l2284
  4061   0015C6                     i2u126_40:
  4062   0015C6  5003               	movf	i2___lwmod@divisor^0,w,c
  4063   0015C8  5C01               	subwf	i2___lwmod@dividend^0,w,c
  4064   0015CA  5004               	movf	(i2___lwmod@divisor+1)^0,w,c
  4065   0015CC  5802               	subwfb	(i2___lwmod@dividend+1)^0,w,c
  4066   0015CE  A0D8               	btfss	status,0,c
  4067   0015D0  D004               	goto	i2l2292
  4068   0015D2  5003               	movf	i2___lwmod@divisor^0,w,c
  4069   0015D4  5E01               	subwf	i2___lwmod@dividend^0,f,c
  4070   0015D6  5004               	movf	(i2___lwmod@divisor+1)^0,w,c
  4071   0015D8  5A02               	subwfb	(i2___lwmod@dividend+1)^0,f,c
  4072   0015DA                     i2l2292:
  4073   0015DA  90D8               	bcf	status,0,c
  4074   0015DC  3204               	rrcf	(i2___lwmod@divisor+1)^0,f,c
  4075   0015DE  3203               	rrcf	i2___lwmod@divisor^0,f,c
  4076   0015E0  2E05               	decfsz	i2___lwmod@counter^0,f,c
  4077   0015E2  D7F1               	goto	i2u126_40
  4078   0015E4                     i2l790:
  4079   0015E4  C001  F001         	movff	i2___lwmod@dividend,?i2___lwmod
  4080   0015E8  C002  F002         	movff	i2___lwmod@dividend+1,?i2___lwmod+1
  4081   0015EC  0012               	return		;funcret
  4082   0015EE                     __end_ofi2___lwmod:
  4083                           	callstack 0
  4084                           
  4085 ;; *************** function i2___lwdiv *****************
  4086 ;; Defined at:
  4087 ;;		line 7 in file "C:\Program Files\Microchip\xc8\v2.40\pic\sources\c90\common\lwdiv.c"
  4088 ;; Parameters:    Size  Location     Type
  4089 ;;  dividend        2    0[COMRAM] unsigned int 
  4090 ;;  divisor         2    2[COMRAM] unsigned int 
  4091 ;; Auto vars:     Size  Location     Type
  4092 ;;  quotient        2    4[COMRAM] unsigned int 
  4093 ;;  counter         1    6[COMRAM] unsigned char 
  4094 ;; Return value:  Size  Location     Type
  4095 ;;                  2    0[COMRAM] unsigned int 
  4096 ;; Registers used:
  4097 ;;		wreg, status,2, status,0
  4098 ;; Tracked objects:
  4099 ;;		On entry : 0/0
  4100 ;;		On exit  : 0/0
  4101 ;;		Unchanged: 0/0
  4102 ;; Data sizes:     COMRAM   BANK0   BANK1   BANK2   BANK3   BANK4   BANK5   BANK6   BANK7
  4103 ;;      Params:         4       0       0       0       0       0       0       0       0
  4104 ;;      Locals:         3       0       0       0       0       0       0       0       0
  4105 ;;      Temps:          0       0       0       0       0       0       0       0       0
  4106 ;;      Totals:         7       0       0       0       0       0       0       0       0
  4107 ;;Total ram usage:        7 bytes
  4108 ;; Hardware stack levels used: 1
  4109 ;; This function calls:
  4110 ;;		Nothing
  4111 ;; This function is called by:
  4112 ;;		i2_TransmitirDatos
  4113 ;; This function uses a non-reentrant model
  4114 ;;
  4115                           
  4116                           	psect	text29
  4117   0013F0                     __ptext29:
  4118                           	callstack 0
  4119   0013F0                     i2___lwdiv:
  4120                           	callstack 23
  4121                           
  4122                           ;incstack = 0
  4123   0013F0  0E00               	movlw	0
  4124   0013F2  6E06               	movwf	(i2___lwdiv@quotient+1)^0,c
  4125   0013F4  0E00               	movlw	0
  4126   0013F6  6E05               	movwf	i2___lwdiv@quotient^0,c
  4127   0013F8  5003               	movf	i2___lwdiv@divisor^0,w,c
  4128   0013FA  1004               	iorwf	(i2___lwdiv@divisor+1)^0,w,c
  4129   0013FC  B4D8               	btfsc	status,2,c
  4130   0013FE  D01C               	goto	i2l780
  4131   001400  0E01               	movlw	1
  4132   001402  6E07               	movwf	i2___lwdiv@counter^0,c
  4133   001404  D004               	goto	i2l2266
  4134   001406                     i2l2264:
  4135   001406  90D8               	bcf	status,0,c
  4136   001408  3603               	rlcf	i2___lwdiv@divisor^0,f,c
  4137   00140A  3604               	rlcf	(i2___lwdiv@divisor+1)^0,f,c
  4138   00140C  2A07               	incf	i2___lwdiv@counter^0,f,c
  4139   00140E                     i2l2266:
  4140   00140E  AE04               	btfss	(i2___lwdiv@divisor+1)^0,7,c
  4141   001410  D7FA               	goto	i2l2264
  4142   001412                     i2u123_40:
  4143   001412  90D8               	bcf	status,0,c
  4144   001414  3605               	rlcf	i2___lwdiv@quotient^0,f,c
  4145   001416  3606               	rlcf	(i2___lwdiv@quotient+1)^0,f,c
  4146   001418  5003               	movf	i2___lwdiv@divisor^0,w,c
  4147   00141A  5C01               	subwf	i2___lwdiv@dividend^0,w,c
  4148   00141C  5004               	movf	(i2___lwdiv@divisor+1)^0,w,c
  4149   00141E  5802               	subwfb	(i2___lwdiv@dividend+1)^0,w,c
  4150   001420  A0D8               	btfss	status,0,c
  4151   001422  D005               	goto	i2l2276
  4152   001424  5003               	movf	i2___lwdiv@divisor^0,w,c
  4153   001426  5E01               	subwf	i2___lwdiv@dividend^0,f,c
  4154   001428  5004               	movf	(i2___lwdiv@divisor+1)^0,w,c
  4155   00142A  5A02               	subwfb	(i2___lwdiv@dividend+1)^0,f,c
  4156   00142C  8005               	bsf	i2___lwdiv@quotient^0,0,c
  4157   00142E                     i2l2276:
  4158   00142E  90D8               	bcf	status,0,c
  4159   001430  3204               	rrcf	(i2___lwdiv@divisor+1)^0,f,c
  4160   001432  3203               	rrcf	i2___lwdiv@divisor^0,f,c
  4161   001434  2E07               	decfsz	i2___lwdiv@counter^0,f,c
  4162   001436  D7ED               	goto	i2u123_40
  4163   001438                     i2l780:
  4164   001438  C005  F001         	movff	i2___lwdiv@quotient,?i2___lwdiv
  4165   00143C  C006  F002         	movff	i2___lwdiv@quotient+1,?i2___lwdiv+1
  4166   001440  0012               	return		;funcret
  4167   001442                     __end_ofi2___lwdiv:
  4168                           	callstack 0
  4169                           
  4170 ;; *************** function i2___lbmod *****************
  4171 ;; Defined at:
  4172 ;;		line 4 in file "C:\Program Files\Microchip\xc8\v2.40\pic\sources\c90\common\lbmod.c"
  4173 ;; Parameters:    Size  Location     Type
  4174 ;;  dividend        1    wreg     unsigned char 
  4175 ;;  divisor         1    0[COMRAM] unsigned char 
  4176 ;; Auto vars:     Size  Location     Type
  4177 ;;  dividend        1    1[COMRAM] unsigned char 
  4178 ;;  rem             1    3[COMRAM] unsigned char 
  4179 ;;  counter         1    2[COMRAM] unsigned char 
  4180 ;; Return value:  Size  Location     Type
  4181 ;;                  1    wreg      unsigned char 
  4182 ;; Registers used:
  4183 ;;		wreg, status,2, status,0
  4184 ;; Tracked objects:
  4185 ;;		On entry : 0/0
  4186 ;;		On exit  : 0/0
  4187 ;;		Unchanged: 0/0
  4188 ;; Data sizes:     COMRAM   BANK0   BANK1   BANK2   BANK3   BANK4   BANK5   BANK6   BANK7
  4189 ;;      Params:         1       0       0       0       0       0       0       0       0
  4190 ;;      Locals:         3       0       0       0       0       0       0       0       0
  4191 ;;      Temps:          0       0       0       0       0       0       0       0       0
  4192 ;;      Totals:         4       0       0       0       0       0       0       0       0
  4193 ;;Total ram usage:        4 bytes
  4194 ;; Hardware stack levels used: 1
  4195 ;; This function calls:
  4196 ;;		Nothing
  4197 ;; This function is called by:
  4198 ;;		i2_TransmitirDatos
  4199 ;; This function uses a non-reentrant model
  4200 ;;
  4201                           
  4202                           	psect	text30
  4203   0016E8                     __ptext30:
  4204                           	callstack 0
  4205   0016E8                     i2___lbmod:
  4206                           	callstack 23
  4207                           
  4208                           ;incstack = 0
  4209                           ;i2___lbmod@dividend stored from wreg
  4210   0016E8  6E02               	movwf	i2___lbmod@dividend^0,c
  4211   0016EA  0E08               	movlw	8
  4212   0016EC  6E03               	movwf	i2___lbmod@counter^0,c
  4213   0016EE  0E00               	movlw	0
  4214   0016F0  6E04               	movwf	i2___lbmod@rem^0,c
  4215   0016F2                     i2l2244:
  4216   0016F2  90D8               	bcf	status,0,c
  4217   0016F4  3402               	rlcf	i2___lbmod@dividend^0,w,c
  4218   0016F6  3404               	rlcf	i2___lbmod@rem^0,w,c
  4219   0016F8  6E04               	movwf	i2___lbmod@rem^0,c
  4220   0016FA  90D8               	bcf	status,0,c
  4221   0016FC  3602               	rlcf	i2___lbmod@dividend^0,f,c
  4222   0016FE  5001               	movf	i2___lbmod@divisor^0,w,c
  4223   001700  5C04               	subwf	i2___lbmod@rem^0,w,c
  4224   001702  A0D8               	btfss	status,0,c
  4225   001704  D002               	goto	i2l2252
  4226   001706  5001               	movf	i2___lbmod@divisor^0,w,c
  4227   001708  5E04               	subwf	i2___lbmod@rem^0,f,c
  4228   00170A                     i2l2252:
  4229   00170A  2E03               	decfsz	i2___lbmod@counter^0,f,c
  4230   00170C  D7F2               	goto	i2l2244
  4231   00170E  5004               	movf	i2___lbmod@rem^0,w,c
  4232   001710  0012               	return		;funcret
  4233   001712                     __end_ofi2___lbmod:
  4234                           	callstack 0
  4235                           
  4236 ;; *************** function i2___lbdiv *****************
  4237 ;; Defined at:
  4238 ;;		line 4 in file "C:\Program Files\Microchip\xc8\v2.40\pic\sources\c90\common\lbdiv.c"
  4239 ;; Parameters:    Size  Location     Type
  4240 ;;  dividend        1    wreg     unsigned char 
  4241 ;;  divisor         1    0[COMRAM] unsigned char 
  4242 ;; Auto vars:     Size  Location     Type
  4243 ;;  dividend        1    1[COMRAM] unsigned char 
  4244 ;;  quotient        1    3[COMRAM] unsigned char 
  4245 ;;  counter         1    2[COMRAM] unsigned char 
  4246 ;; Return value:  Size  Location     Type
  4247 ;;                  1    wreg      unsigned char 
  4248 ;; Registers used:
  4249 ;;		wreg, status,2, status,0
  4250 ;; Tracked objects:
  4251 ;;		On entry : 0/0
  4252 ;;		On exit  : 0/0
  4253 ;;		Unchanged: 0/0
  4254 ;; Data sizes:     COMRAM   BANK0   BANK1   BANK2   BANK3   BANK4   BANK5   BANK6   BANK7
  4255 ;;      Params:         1       0       0       0       0       0       0       0       0
  4256 ;;      Locals:         3       0       0       0       0       0       0       0       0
  4257 ;;      Temps:          0       0       0       0       0       0       0       0       0
  4258 ;;      Totals:         4       0       0       0       0       0       0       0       0
  4259 ;;Total ram usage:        4 bytes
  4260 ;; Hardware stack levels used: 1
  4261 ;; This function calls:
  4262 ;;		Nothing
  4263 ;; This function is called by:
  4264 ;;		i2_TransmitirDatos
  4265 ;; This function uses a non-reentrant model
  4266 ;;
  4267                           
  4268                           	psect	text31
  4269   001628                     __ptext31:
  4270                           	callstack 0
  4271   001628                     i2___lbdiv:
  4272                           	callstack 23
  4273                           
  4274                           ;incstack = 0
  4275                           ;i2___lbdiv@dividend stored from wreg
  4276   001628  6E02               	movwf	i2___lbdiv@dividend^0,c
  4277   00162A  0E00               	movlw	0
  4278   00162C  6E04               	movwf	i2___lbdiv@quotient^0,c
  4279   00162E  5001               	movf	i2___lbdiv@divisor^0,w,c
  4280   001630  B4D8               	btfsc	status,2,c
  4281   001632  D015               	goto	i2l2238
  4282   001634  0E01               	movlw	1
  4283   001636  6E03               	movwf	i2___lbdiv@counter^0,c
  4284   001638  D003               	goto	i2l2226
  4285   00163A                     i2l2222:
  4286   00163A  90D8               	bcf	status,0,c
  4287   00163C  3601               	rlcf	i2___lbdiv@divisor^0,f,c
  4288   00163E  2A03               	incf	i2___lbdiv@counter^0,f,c
  4289   001640                     i2l2226:
  4290   001640  AE01               	btfss	i2___lbdiv@divisor^0,7,c
  4291   001642  D7FB               	goto	i2l2222
  4292   001644                     i2u119_40:
  4293   001644  90D8               	bcf	status,0,c
  4294   001646  3604               	rlcf	i2___lbdiv@quotient^0,f,c
  4295   001648  5001               	movf	i2___lbdiv@divisor^0,w,c
  4296   00164A  5C02               	subwf	i2___lbdiv@dividend^0,w,c
  4297   00164C  A0D8               	btfss	status,0,c
  4298   00164E  D003               	goto	i2l2234
  4299   001650  5001               	movf	i2___lbdiv@divisor^0,w,c
  4300   001652  5E02               	subwf	i2___lbdiv@dividend^0,f,c
  4301   001654  8004               	bsf	i2___lbdiv@quotient^0,0,c
  4302   001656                     i2l2234:
  4303   001656  90D8               	bcf	status,0,c
  4304   001658  3201               	rrcf	i2___lbdiv@divisor^0,f,c
  4305   00165A  2E03               	decfsz	i2___lbdiv@counter^0,f,c
  4306   00165C  D7F3               	goto	i2u119_40
  4307   00165E                     i2l2238:
  4308   00165E  5004               	movf	i2___lbdiv@quotient^0,w,c
  4309   001660  0012               	return		;funcret
  4310   001662                     __end_ofi2___lbdiv:
  4311                           	callstack 0
  4312                           
  4313 ;; *************** function i2___awdiv *****************
  4314 ;; Defined at:
  4315 ;;		line 7 in file "C:\Program Files\Microchip\xc8\v2.40\pic\sources\c90\common\awdiv.c"
  4316 ;; Parameters:    Size  Location     Type
  4317 ;;  dividend        2    0[COMRAM] int 
  4318 ;;  divisor         2    2[COMRAM] int 
  4319 ;; Auto vars:     Size  Location     Type
  4320 ;;  quotient        2    6[COMRAM] int 
  4321 ;;  sign            1    5[COMRAM] unsigned char 
  4322 ;;  counter         1    4[COMRAM] unsigned char 
  4323 ;; Return value:  Size  Location     Type
  4324 ;;                  2    0[COMRAM] int 
  4325 ;; Registers used:
  4326 ;;		wreg, status,2, status,0
  4327 ;; Tracked objects:
  4328 ;;		On entry : 0/0
  4329 ;;		On exit  : 0/0
  4330 ;;		Unchanged: 0/0
  4331 ;; Data sizes:     COMRAM   BANK0   BANK1   BANK2   BANK3   BANK4   BANK5   BANK6   BANK7
  4332 ;;      Params:         4       0       0       0       0       0       0       0       0
  4333 ;;      Locals:         4       0       0       0       0       0       0       0       0
  4334 ;;      Temps:          0       0       0       0       0       0       0       0       0
  4335 ;;      Totals:         8       0       0       0       0       0       0       0       0
  4336 ;;Total ram usage:        8 bytes
  4337 ;; Hardware stack levels used: 1
  4338 ;; This function calls:
  4339 ;;		Nothing
  4340 ;; This function is called by:
  4341 ;;		i2_TransmitirDatos
  4342 ;; This function uses a non-reentrant model
  4343 ;;
  4344                           
  4345                           	psect	text32
  4346   0011FC                     __ptext32:
  4347                           	callstack 0
  4348   0011FC                     i2___awdiv:
  4349                           	callstack 23
  4350                           
  4351                           ;incstack = 0
  4352   0011FC  0E00               	movlw	0
  4353   0011FE  6E06               	movwf	i2___awdiv@sign^0,c
  4354   001200  AE04               	btfss	(i2___awdiv@divisor+1)^0,7,c
  4355   001202  D006               	goto	i2l2180
  4356   001204  6C03               	negf	i2___awdiv@divisor^0,c
  4357   001206  1E04               	comf	(i2___awdiv@divisor+1)^0,f,c
  4358   001208  B0D8               	btfsc	status,0,c
  4359   00120A  2A04               	incf	(i2___awdiv@divisor+1)^0,f,c
  4360   00120C  0E01               	movlw	1
  4361   00120E  6E06               	movwf	i2___awdiv@sign^0,c
  4362   001210                     i2l2180:
  4363   001210  AE02               	btfss	(i2___awdiv@dividend+1)^0,7,c
  4364   001212  D006               	goto	i2l2186
  4365   001214  6C01               	negf	i2___awdiv@dividend^0,c
  4366   001216  1E02               	comf	(i2___awdiv@dividend+1)^0,f,c
  4367   001218  B0D8               	btfsc	status,0,c
  4368   00121A  2A02               	incf	(i2___awdiv@dividend+1)^0,f,c
  4369   00121C  0E01               	movlw	1
  4370   00121E  1A06               	xorwf	i2___awdiv@sign^0,f,c
  4371   001220                     i2l2186:
  4372   001220  0E00               	movlw	0
  4373   001222  6E08               	movwf	(i2___awdiv@quotient+1)^0,c
  4374   001224  0E00               	movlw	0
  4375   001226  6E07               	movwf	i2___awdiv@quotient^0,c
  4376   001228  5003               	movf	i2___awdiv@divisor^0,w,c
  4377   00122A  1004               	iorwf	(i2___awdiv@divisor+1)^0,w,c
  4378   00122C  B4D8               	btfsc	status,2,c
  4379   00122E  D01C               	goto	i2l2208
  4380   001230  0E01               	movlw	1
  4381   001232  6E05               	movwf	i2___awdiv@counter^0,c
  4382   001234  D004               	goto	i2l2194
  4383   001236                     i2l2192:
  4384   001236  90D8               	bcf	status,0,c
  4385   001238  3603               	rlcf	i2___awdiv@divisor^0,f,c
  4386   00123A  3604               	rlcf	(i2___awdiv@divisor+1)^0,f,c
  4387   00123C  2A05               	incf	i2___awdiv@counter^0,f,c
  4388   00123E                     i2l2194:
  4389   00123E  AE04               	btfss	(i2___awdiv@divisor+1)^0,7,c
  4390   001240  D7FA               	goto	i2l2192
  4391   001242                     i2u115_40:
  4392   001242  90D8               	bcf	status,0,c
  4393   001244  3607               	rlcf	i2___awdiv@quotient^0,f,c
  4394   001246  3608               	rlcf	(i2___awdiv@quotient+1)^0,f,c
  4395   001248  5003               	movf	i2___awdiv@divisor^0,w,c
  4396   00124A  5C01               	subwf	i2___awdiv@dividend^0,w,c
  4397   00124C  5004               	movf	(i2___awdiv@divisor+1)^0,w,c
  4398   00124E  5802               	subwfb	(i2___awdiv@dividend+1)^0,w,c
  4399   001250  A0D8               	btfss	status,0,c
  4400   001252  D005               	goto	i2l2204
  4401   001254  5003               	movf	i2___awdiv@divisor^0,w,c
  4402   001256  5E01               	subwf	i2___awdiv@dividend^0,f,c
  4403   001258  5004               	movf	(i2___awdiv@divisor+1)^0,w,c
  4404   00125A  5A02               	subwfb	(i2___awdiv@dividend+1)^0,f,c
  4405   00125C  8007               	bsf	i2___awdiv@quotient^0,0,c
  4406   00125E                     i2l2204:
  4407   00125E  90D8               	bcf	status,0,c
  4408   001260  3204               	rrcf	(i2___awdiv@divisor+1)^0,f,c
  4409   001262  3203               	rrcf	i2___awdiv@divisor^0,f,c
  4410   001264  2E05               	decfsz	i2___awdiv@counter^0,f,c
  4411   001266  D7ED               	goto	i2u115_40
  4412   001268                     i2l2208:
  4413   001268  5006               	movf	i2___awdiv@sign^0,w,c
  4414   00126A  B4D8               	btfsc	status,2,c
  4415   00126C  D004               	goto	i2l2212
  4416   00126E  6C07               	negf	i2___awdiv@quotient^0,c
  4417   001270  1E08               	comf	(i2___awdiv@quotient+1)^0,f,c
  4418   001272  B0D8               	btfsc	status,0,c
  4419   001274  2A08               	incf	(i2___awdiv@quotient+1)^0,f,c
  4420   001276                     i2l2212:
  4421   001276  C007  F001         	movff	i2___awdiv@quotient,?i2___awdiv
  4422   00127A  C008  F002         	movff	i2___awdiv@quotient+1,?i2___awdiv+1
  4423   00127E  0012               	return		;funcret
  4424   001280                     __end_ofi2___awdiv:
  4425                           	callstack 0
  4426                           
  4427 ;; *************** function i2_Transmitir *****************
  4428 ;; Defined at:
  4429 ;;		line 165 in file "Laboratorio5.c"
  4430 ;; Parameters:    Size  Location     Type
  4431 ;;  BufferT         1    wreg     unsigned char 
  4432 ;; Auto vars:     Size  Location     Type
  4433 ;;  BufferT         1    0[COMRAM] unsigned char 
  4434 ;; Return value:  Size  Location     Type
  4435 ;;                  1    wreg      void 
  4436 ;; Registers used:
  4437 ;;		wreg
  4438 ;; Tracked objects:
  4439 ;;		On entry : 0/0
  4440 ;;		On exit  : 0/0
  4441 ;;		Unchanged: 0/0
  4442 ;; Data sizes:     COMRAM   BANK0   BANK1   BANK2   BANK3   BANK4   BANK5   BANK6   BANK7
  4443 ;;      Params:         0       0       0       0       0       0       0       0       0
  4444 ;;      Locals:         1       0       0       0       0       0       0       0       0
  4445 ;;      Temps:          0       0       0       0       0       0       0       0       0
  4446 ;;      Totals:         1       0       0       0       0       0       0       0       0
  4447 ;;Total ram usage:        1 bytes
  4448 ;; Hardware stack levels used: 1
  4449 ;; This function calls:
  4450 ;;		Nothing
  4451 ;; This function is called by:
  4452 ;;		i2_TransmitirDatos
  4453 ;; This function uses a non-reentrant model
  4454 ;;
  4455                           
  4456                           	psect	text33
  4457   001888                     __ptext33:
  4458                           	callstack 0
  4459   001888                     i2_Transmitir:
  4460                           	callstack 23
  4461                           
  4462                           ;incstack = 0
  4463                           ;i2Transmitir@BufferT stored from wreg
  4464   001888  6E01               	movwf	i2Transmitir@BufferT^0,c
  4465   00188A                     
  4466                           ;Laboratorio5.c: 166: while (TRMT == 0);
  4467   00188A  A2AC               	btfss	4012,1,c	;volatile
  4468   00188C  D7FE               	goto	i2l2162
  4469                           
  4470                           ;Laboratorio5.c: 167: TXREG = BufferT;
  4471   00188E  C001  FFAD         	movff	i2Transmitir@BufferT,4013	;volatile
  4472   001892  0012               	return		;funcret
  4473   001894                     __end_ofi2_Transmitir:
  4474                           	callstack 0
  4475                           
  4476 ;; *************** function i2_MensajeLCD_Word *****************
  4477 ;; Defined at:
  4478 ;;		line 247 in file "LibLCDXC8.h"
  4479 ;; Parameters:    Size  Location     Type
  4480 ;;  a               1    5[COMRAM] PTR unsigned char 
  4481 ;;		 -> STR_4(5), STR_3(6), STR_2(10), STR_1(13), 
  4482 ;; Auto vars:     Size  Location     Type
  4483 ;;  i               2    7[COMRAM] int 
  4484 ;; Return value:  Size  Location     Type
  4485 ;;                  1    wreg      void 
  4486 ;; Registers used:
  4487 ;;		wreg, status,2, status,0, tblptrl, tblptrh, tblptru, cstack
  4488 ;; Tracked objects:
  4489 ;;		On entry : 0/0
  4490 ;;		On exit  : 0/0
  4491 ;;		Unchanged: 0/0
  4492 ;; Data sizes:     COMRAM   BANK0   BANK1   BANK2   BANK3   BANK4   BANK5   BANK6   BANK7
  4493 ;;      Params:         1       0       0       0       0       0       0       0       0
  4494 ;;      Locals:         2       0       0       0       0       0       0       0       0
  4495 ;;      Temps:          1       0       0       0       0       0       0       0       0
  4496 ;;      Totals:         4       0       0       0       0       0       0       0       0
  4497 ;;Total ram usage:        4 bytes
  4498 ;; Hardware stack levels used: 1
  4499 ;; Hardware stack levels required when called: 3
  4500 ;; This function calls:
  4501 ;;		i2_EscribeLCD_c
  4502 ;; This function is called by:
  4503 ;;		i2_TransmitirDatos
  4504 ;; This function uses a non-reentrant model
  4505 ;;
  4506                           
  4507                           	psect	text34
  4508   001490                     __ptext34:
  4509                           	callstack 0
  4510   001490                     i2_MensajeLCD_Word:
  4511                           	callstack 20
  4512                           
  4513                           ;LibLCDXC8.h: 251: for(int i = 0; i<16; i++){
  4514                           
  4515                           ;incstack = 0
  4516   001490  0E00               	movlw	0
  4517   001492  6E09               	movwf	(i2MensajeLCD_Word@i+1)^0,c
  4518   001494  0E00               	movlw	0
  4519   001496  6E08               	movwf	i2MensajeLCD_Word@i^0,c
  4520   001498                     i2l2144:
  4521                           
  4522                           ;LibLCDXC8.h: 252: if(a[i] == (0)){
  4523   001498  5006               	movf	i2MensajeLCD_Word@a^0,w,c
  4524   00149A  2408               	addwf	i2MensajeLCD_Word@i^0,w,c
  4525   00149C  6E07               	movwf	??i2_MensajeLCD_Word^0,c
  4526   00149E  C007  FFF6         	movff	??i2_MensajeLCD_Word,tblptrl
  4527   0014A2                     	if	1	;There is more than 1 active tblptr byte
  4528   0014A2  0E08               	movlw	high __smallconst
  4529   0014A4  6EF7               	movwf	tblptrh,c
  4530   0014A6                     	endif
  4531   0014A6                     	if	0	;tblptru may be non-zero
  4532   0014A6                     	endif
  4533   0014A6                     	if	0	;tblptru may be non-zero
  4534   0014A6                     	endif
  4535   0014A6  0008               	tblrd		*
  4536   0014A8  50F5               	movf	tablat,w,c
  4537   0014AA  0900               	iorlw	0
  4538   0014AC  B4D8               	btfsc	status,2,c
  4539   0014AE  0012               	return	
  4540                           
  4541                           ;LibLCDXC8.h: 254: };LibLCDXC8.h: 255: EscribeLCD_c(a[i]);
  4542   0014B0  5006               	movf	i2MensajeLCD_Word@a^0,w,c
  4543   0014B2  2408               	addwf	i2MensajeLCD_Word@i^0,w,c
  4544   0014B4  6E07               	movwf	??i2_MensajeLCD_Word^0,c
  4545   0014B6  C007  FFF6         	movff	??i2_MensajeLCD_Word,tblptrl
  4546   0014BA                     	if	1	;There is more than 1 active tblptr byte
  4547   0014BA  0E08               	movlw	high __smallconst
  4548   0014BC  6EF7               	movwf	tblptrh,c
  4549   0014BE                     	endif
  4550   0014BE                     	if	0	;tblptru may be non-zero
  4551   0014BE                     	endif
  4552   0014BE                     	if	0	;tblptru may be non-zero
  4553   0014BE                     	endif
  4554   0014BE  0008               	tblrd		*
  4555   0014C0  50F5               	movf	tablat,w,c
  4556   0014C2  ECF5  F00B         	call	i2_EscribeLCD_c
  4557   0014C6  4A08               	infsnz	i2MensajeLCD_Word@i^0,f,c
  4558   0014C8  2A09               	incf	(i2MensajeLCD_Word@i+1)^0,f,c
  4559   0014CA  BE09               	btfsc	(i2MensajeLCD_Word@i+1)^0,7,c
  4560   0014CC  D7E5               	goto	i2l2144
  4561   0014CE  5009               	movf	(i2MensajeLCD_Word@i+1)^0,w,c
  4562   0014D0  E105               	bnz	i2u110_40
  4563   0014D2  0E10               	movlw	16
  4564   0014D4  5C08               	subwf	i2MensajeLCD_Word@i^0,w,c
  4565   0014D6  B0D8               	btfsc	status,0,c
  4566   0014D8  0012               	return	
  4567   0014DA  D7DE               	goto	i2l2144
  4568   0014DC                     i2u110_40:
  4569   0014DC  0012               	return		;funcret
  4570   0014DE                     __end_ofi2_MensajeLCD_Word:
  4571                           	callstack 0
  4572                           
  4573 ;; *************** function i2_EscribeLCD_c *****************
  4574 ;; Defined at:
  4575 ;;		line 148 in file "LibLCDXC8.h"
  4576 ;; Parameters:    Size  Location     Type
  4577 ;;  a               1    wreg     unsigned char 
  4578 ;; Auto vars:     Size  Location     Type
  4579 ;;  a               1    4[COMRAM] unsigned char 
  4580 ;; Return value:  Size  Location     Type
  4581 ;;                  1    wreg      void 
  4582 ;; Registers used:
  4583 ;;		wreg, status,2, status,0, cstack
  4584 ;; Tracked objects:
  4585 ;;		On entry : 0/0
  4586 ;;		On exit  : 0/0
  4587 ;;		Unchanged: 0/0
  4588 ;; Data sizes:     COMRAM   BANK0   BANK1   BANK2   BANK3   BANK4   BANK5   BANK6   BANK7
  4589 ;;      Params:         0       0       0       0       0       0       0       0       0
  4590 ;;      Locals:         1       0       0       0       0       0       0       0       0
  4591 ;;      Temps:          0       0       0       0       0       0       0       0       0
  4592 ;;      Totals:         1       0       0       0       0       0       0       0       0
  4593 ;;Total ram usage:        1 bytes
  4594 ;; Hardware stack levels used: 1
  4595 ;; Hardware stack levels required when called: 2
  4596 ;; This function calls:
  4597 ;;		i2_EnviaDato
  4598 ;;		i2_HabilitaLCD
  4599 ;;		i2_RetardoLCD
  4600 ;; This function is called by:
  4601 ;;		i2_MensajeLCD_Word
  4602 ;;		i2_TransmitirDatos
  4603 ;; This function uses a non-reentrant model
  4604 ;;
  4605                           
  4606                           	psect	text35
  4607   0017EA                     __ptext35:
  4608                           	callstack 0
  4609   0017EA                     i2_EscribeLCD_c:
  4610                           	callstack 20
  4611                           
  4612                           ;incstack = 0
  4613                           ;i2EscribeLCD_c@a stored from wreg
  4614   0017EA  6E05               	movwf	i2EscribeLCD_c@a^0,c
  4615                           
  4616                           ;LibLCDXC8.h: 152: LATD6=1;
  4617   0017EC  8C8C               	bsf	3980,6,c	;volatile
  4618                           
  4619                           ;LibLCDXC8.h: 153: EnviaDato(a);
  4620   0017EE  5005               	movf	i2EscribeLCD_c@a^0,w,c
  4621   0017F0  EC92  F00A         	call	i2_EnviaDato
  4622                           
  4623                           ;LibLCDXC8.h: 154: HabilitaLCD();
  4624   0017F4  EC37  F00C         	call	i2_HabilitaLCD	;wreg free
  4625                           
  4626                           ;LibLCDXC8.h: 155: RetardoLCD(4);
  4627   0017F8  0E04               	movlw	4
  4628   0017FA  EC73  F009         	call	i2_RetardoLCD
  4629   0017FE  0012               	return		;funcret
  4630   001800                     __end_ofi2_EscribeLCD_c:
  4631                           	callstack 0
  4632                           
  4633 ;; *************** function i2_DireccionaLCD *****************
  4634 ;; Defined at:
  4635 ;;		line 259 in file "LibLCDXC8.h"
  4636 ;; Parameters:    Size  Location     Type
  4637 ;;  a               1    wreg     unsigned char 
  4638 ;; Auto vars:     Size  Location     Type
  4639 ;;  a               1    4[COMRAM] unsigned char 
  4640 ;; Return value:  Size  Location     Type
  4641 ;;                  1    wreg      void 
  4642 ;; Registers used:
  4643 ;;		wreg, status,2, status,0, cstack
  4644 ;; Tracked objects:
  4645 ;;		On entry : 0/0
  4646 ;;		On exit  : 0/0
  4647 ;;		Unchanged: 0/0
  4648 ;; Data sizes:     COMRAM   BANK0   BANK1   BANK2   BANK3   BANK4   BANK5   BANK6   BANK7
  4649 ;;      Params:         0       0       0       0       0       0       0       0       0
  4650 ;;      Locals:         1       0       0       0       0       0       0       0       0
  4651 ;;      Temps:          0       0       0       0       0       0       0       0       0
  4652 ;;      Totals:         1       0       0       0       0       0       0       0       0
  4653 ;;Total ram usage:        1 bytes
  4654 ;; Hardware stack levels used: 1
  4655 ;; Hardware stack levels required when called: 2
  4656 ;; This function calls:
  4657 ;;		i2_EnviaDato
  4658 ;;		i2_HabilitaLCD
  4659 ;;		i2_RetardoLCD
  4660 ;; This function is called by:
  4661 ;;		i2_TransmitirDatos
  4662 ;; This function uses a non-reentrant model
  4663 ;;
  4664                           
  4665                           	psect	text36
  4666   001800                     __ptext36:
  4667                           	callstack 0
  4668   001800                     i2_DireccionaLCD:
  4669                           	callstack 21
  4670                           
  4671                           ;incstack = 0
  4672                           ;i2DireccionaLCD@a stored from wreg
  4673   001800  6E05               	movwf	i2DireccionaLCD@a^0,c
  4674                           
  4675                           ;LibLCDXC8.h: 262: LATD6=0;
  4676   001802  9C8C               	bcf	3980,6,c	;volatile
  4677                           
  4678                           ;LibLCDXC8.h: 263: EnviaDato(a);
  4679   001804  5005               	movf	i2DireccionaLCD@a^0,w,c
  4680   001806  EC92  F00A         	call	i2_EnviaDato
  4681                           
  4682                           ;LibLCDXC8.h: 264: HabilitaLCD();
  4683   00180A  EC37  F00C         	call	i2_HabilitaLCD	;wreg free
  4684                           
  4685                           ;LibLCDXC8.h: 265: RetardoLCD(4);
  4686   00180E  0E04               	movlw	4
  4687   001810  EC73  F009         	call	i2_RetardoLCD
  4688   001814  0012               	return		;funcret
  4689   001816                     __end_ofi2_DireccionaLCD:
  4690                           	callstack 0
  4691                           
  4692 ;; *************** function i2_BorraLCD *****************
  4693 ;; Defined at:
  4694 ;;		line 111 in file "LibLCDXC8.h"
  4695 ;; Parameters:    Size  Location     Type
  4696 ;;		None
  4697 ;; Auto vars:     Size  Location     Type
  4698 ;;		None
  4699 ;; Return value:  Size  Location     Type
  4700 ;;                  1    wreg      void 
  4701 ;; Registers used:
  4702 ;;		wreg, status,2, status,0, cstack
  4703 ;; Tracked objects:
  4704 ;;		On entry : 0/0
  4705 ;;		On exit  : 0/0
  4706 ;;		Unchanged: 0/0
  4707 ;; Data sizes:     COMRAM   BANK0   BANK1   BANK2   BANK3   BANK4   BANK5   BANK6   BANK7
  4708 ;;      Params:         0       0       0       0       0       0       0       0       0
  4709 ;;      Locals:         0       0       0       0       0       0       0       0       0
  4710 ;;      Temps:          0       0       0       0       0       0       0       0       0
  4711 ;;      Totals:         0       0       0       0       0       0       0       0       0
  4712 ;;Total ram usage:        0 bytes
  4713 ;; Hardware stack levels used: 1
  4714 ;; Hardware stack levels required when called: 2
  4715 ;; This function calls:
  4716 ;;		i2_EnviaDato
  4717 ;;		i2_HabilitaLCD
  4718 ;;		i2_RetardoLCD
  4719 ;; This function is called by:
  4720 ;;		i2_TransmitirDatos
  4721 ;; This function uses a non-reentrant model
  4722 ;;
  4723                           
  4724                           	psect	text37
  4725   00183E                     __ptext37:
  4726                           	callstack 0
  4727   00183E                     i2_BorraLCD:
  4728                           	callstack 21
  4729                           
  4730                           ;LibLCDXC8.h: 113: LATD6=0;
  4731                           
  4732                           ;incstack = 0
  4733   00183E  9C8C               	bcf	3980,6,c	;volatile
  4734                           
  4735                           ;LibLCDXC8.h: 114: EnviaDato(0x01);
  4736   001840  0E01               	movlw	1
  4737   001842  EC92  F00A         	call	i2_EnviaDato
  4738                           
  4739                           ;LibLCDXC8.h: 115: HabilitaLCD();
  4740   001846  EC37  F00C         	call	i2_HabilitaLCD	;wreg free
  4741                           
  4742                           ;LibLCDXC8.h: 116: RetardoLCD(2);
  4743   00184A  0E02               	movlw	2
  4744   00184C  EC73  F009         	call	i2_RetardoLCD
  4745   001850  0012               	return		;funcret
  4746   001852                     __end_ofi2_BorraLCD:
  4747                           	callstack 0
  4748                           
  4749 ;; *************** function i2_EnviaDato *****************
  4750 ;; Defined at:
  4751 ;;		line 58 in file "LibLCDXC8.h"
  4752 ;; Parameters:    Size  Location     Type
  4753 ;;  a               1    wreg     unsigned char 
  4754 ;; Auto vars:     Size  Location     Type
  4755 ;;  a               1    3[COMRAM] unsigned char 
  4756 ;; Return value:  Size  Location     Type
  4757 ;;                  1    wreg      void 
  4758 ;; Registers used:
  4759 ;;		wreg, status,2, status,0, cstack
  4760 ;; Tracked objects:
  4761 ;;		On entry : 0/0
  4762 ;;		On exit  : 0/0
  4763 ;;		Unchanged: 0/0
  4764 ;; Data sizes:     COMRAM   BANK0   BANK1   BANK2   BANK3   BANK4   BANK5   BANK6   BANK7
  4765 ;;      Params:         0       0       0       0       0       0       0       0       0
  4766 ;;      Locals:         1       0       0       0       0       0       0       0       0
  4767 ;;      Temps:          1       0       0       0       0       0       0       0       0
  4768 ;;      Totals:         2       0       0       0       0       0       0       0       0
  4769 ;;Total ram usage:        2 bytes
  4770 ;; Hardware stack levels used: 1
  4771 ;; Hardware stack levels required when called: 1
  4772 ;; This function calls:
  4773 ;;		i2_HabilitaLCD
  4774 ;;		i2_RetardoLCD
  4775 ;; This function is called by:
  4776 ;;		i2_BorraLCD
  4777 ;;		i2_EscribeLCD_c
  4778 ;;		i2_DireccionaLCD
  4779 ;; This function uses a non-reentrant model
  4780 ;;
  4781                           
  4782                           	psect	text38
  4783   001524                     __ptext38:
  4784                           	callstack 0
  4785   001524                     i2_EnviaDato:
  4786                           	callstack 20
  4787                           
  4788                           ;incstack = 0
  4789                           ;i2EnviaDato@a stored from wreg
  4790   001524  6E04               	movwf	i2EnviaDato@a^0,c
  4791                           
  4792                           ;LibLCDXC8.h: 59: if(interfaz==4){
  4793   001526  0E04               	movlw	4
  4794   001528  183B               	xorwf	_interfaz^0,w,c
  4795   00152A  A4D8               	btfss	status,2,c
  4796   00152C  D017               	goto	i2l1972
  4797                           
  4798                           ;LibLCDXC8.h: 60: LATD=(LATD & 0b00001111) | (a & 0b11110000);
  4799   00152E  C004  F003         	movff	i2EnviaDato@a,??i2_EnviaDato
  4800   001532  0EF0               	movlw	240
  4801   001534  1603               	andwf	??i2_EnviaDato^0,f,c
  4802   001536  508C               	movf	140,w,c	;volatile
  4803   001538  0B0F               	andlw	15
  4804   00153A  1003               	iorwf	??i2_EnviaDato^0,w,c
  4805   00153C  6E8C               	movwf	140,c	;volatile
  4806                           
  4807                           ;LibLCDXC8.h: 61: HabilitaLCD();
  4808   00153E  EC37  F00C         	call	i2_HabilitaLCD	;wreg free
  4809                           
  4810                           ;LibLCDXC8.h: 62: RetardoLCD(1);
  4811   001542  0E01               	movlw	1
  4812   001544  EC73  F009         	call	i2_RetardoLCD
  4813                           
  4814                           ;LibLCDXC8.h: 63: LATD=(LATD & 0b00001111) | (a<<4);
  4815   001548  C004  F003         	movff	i2EnviaDato@a,??i2_EnviaDato
  4816   00154C  3A03               	swapf	??i2_EnviaDato^0,f,c
  4817   00154E  0EF0               	movlw	240
  4818   001550  1603               	andwf	??i2_EnviaDato^0,f,c
  4819   001552  508C               	movf	140,w,c	;volatile
  4820   001554  0B0F               	andlw	15
  4821   001556  1003               	iorwf	??i2_EnviaDato^0,w,c
  4822   001558  6E8C               	movwf	140,c	;volatile
  4823                           
  4824                           ;LibLCDXC8.h: 66: }else if(interfaz==8){
  4825   00155A  0012               	return	
  4826   00155C                     i2l1972:
  4827   00155C  0E08               	movlw	8
  4828   00155E  183B               	xorwf	_interfaz^0,w,c
  4829   001560  A4D8               	btfss	status,2,c
  4830   001562  0012               	return	
  4831                           
  4832                           ;LibLCDXC8.h: 67: LATD=a;
  4833   001564  C004  FF8C         	movff	i2EnviaDato@a,3980	;volatile
  4834   001568  0012               	return		;funcret
  4835   00156A                     __end_ofi2_EnviaDato:
  4836                           	callstack 0
  4837                           
  4838 ;; *************** function i2_RetardoLCD *****************
  4839 ;; Defined at:
  4840 ;;		line 295 in file "LibLCDXC8.h"
  4841 ;; Parameters:    Size  Location     Type
  4842 ;;  a               1    wreg     unsigned char 
  4843 ;; Auto vars:     Size  Location     Type
  4844 ;;  a               1    1[COMRAM] unsigned char 
  4845 ;; Return value:  Size  Location     Type
  4846 ;;                  1    wreg      void 
  4847 ;; Registers used:
  4848 ;;		wreg, status,2, status,0
  4849 ;; Tracked objects:
  4850 ;;		On entry : 0/0
  4851 ;;		On exit  : 0/0
  4852 ;;		Unchanged: 0/0
  4853 ;; Data sizes:     COMRAM   BANK0   BANK1   BANK2   BANK3   BANK4   BANK5   BANK6   BANK7
  4854 ;;      Params:         0       0       0       0       0       0       0       0       0
  4855 ;;      Locals:         1       0       0       0       0       0       0       0       0
  4856 ;;      Temps:          1       0       0       0       0       0       0       0       0
  4857 ;;      Totals:         2       0       0       0       0       0       0       0       0
  4858 ;;Total ram usage:        2 bytes
  4859 ;; Hardware stack levels used: 1
  4860 ;; This function calls:
  4861 ;;		Nothing
  4862 ;; This function is called by:
  4863 ;;		i2_EnviaDato
  4864 ;;		i2_BorraLCD
  4865 ;;		i2_EscribeLCD_c
  4866 ;;		i2_DireccionaLCD
  4867 ;; This function uses a non-reentrant model
  4868 ;;
  4869                           
  4870                           	psect	text39
  4871   0012E6                     __ptext39:
  4872                           	callstack 0
  4873   0012E6                     i2_RetardoLCD:
  4874                           	callstack 21
  4875                           
  4876                           ;incstack = 0
  4877                           ;i2RetardoLCD@a stored from wreg
  4878   0012E6  6E02               	movwf	i2RetardoLCD@a^0,c
  4879                           
  4880                           ;LibLCDXC8.h: 296: switch(a){
  4881   0012E8  D023               	goto	i2l1960
  4882   0012EA                     i2l1950:
  4883   0012EA  0E62               	movlw	98
  4884   0012EC  6E01               	movwf	??i2_RetardoLCD^0,c
  4885   0012EE  0E66               	movlw	102
  4886   0012F0                     i2u177_47:
  4887   0012F0  2EE8               	decfsz	wreg,f,c
  4888   0012F2  D7FE               	bra	i2u177_47
  4889   0012F4  2E01               	decfsz	??i2_RetardoLCD^0,f,c
  4890   0012F6  D7FC               	bra	i2u177_47
  4891                           
  4892                           ;LibLCDXC8.h: 299: break;
  4893   0012F8  0012               	return	
  4894   0012FA                     i2l1952:
  4895   0012FA  0E07               	movlw	7
  4896   0012FC  6E01               	movwf	??i2_RetardoLCD^0,c
  4897   0012FE  0E7D               	movlw	125
  4898   001300                     i2u178_47:
  4899   001300  2EE8               	decfsz	wreg,f,c
  4900   001302  D7FE               	bra	i2u178_47
  4901   001304  2E01               	decfsz	??i2_RetardoLCD^0,f,c
  4902   001306  D7FC               	bra	i2u178_47
  4903   001308  F000               	nop	
  4904                           
  4905                           ;LibLCDXC8.h: 301: _delay((unsigned long)((640)*(20000000/4000000.0)));
  4906   00130A  0E05               	movlw	5
  4907   00130C  6E01               	movwf	??i2_RetardoLCD^0,c
  4908   00130E  0E26               	movlw	38
  4909   001310                     i2u179_47:
  4910   001310  2EE8               	decfsz	wreg,f,c
  4911   001312  D7FE               	bra	i2u179_47
  4912   001314  2E01               	decfsz	??i2_RetardoLCD^0,f,c
  4913   001316  D7FC               	bra	i2u179_47
  4914   001318  D000               	nop2	
  4915                           
  4916                           ;LibLCDXC8.h: 303: break;
  4917   00131A  0012               	return	
  4918   00131C                     i2l1954:
  4919   00131C  0EA6               	movlw	166
  4920   00131E                     i2u180_47:
  4921   00131E  2EE8               	decfsz	wreg,f,c
  4922   001320  D7FE               	bra	i2u180_47
  4923   001322  D000               	nop2	
  4924                           
  4925                           ;LibLCDXC8.h: 306: break;
  4926   001324  0012               	return	
  4927   001326                     i2l1956:
  4928   001326  0E42               	movlw	66
  4929   001328                     i2u181_47:
  4930   001328  2EE8               	decfsz	wreg,f,c
  4931   00132A  D7FE               	bra	i2u181_47
  4932   00132C  D000               	nop2	
  4933                           
  4934                           ;LibLCDXC8.h: 309: break;
  4935   00132E  0012               	return	
  4936   001330                     i2l1960:
  4937   001330  5002               	movf	i2RetardoLCD@a^0,w,c
  4938                           
  4939                           ; Switch size 1, requested type "simple"
  4940                           ; Number of cases is 4, Range of values is 1 to 4
  4941                           ; switch strategies available:
  4942                           ; Name         Instructions Cycles
  4943                           ; simple_byte           13     7 (average)
  4944                           ;	Chosen strategy is simple_byte
  4945   001332  0A01               	xorlw	1	; case 1
  4946   001334  B4D8               	btfsc	status,2,c
  4947   001336  D7D9               	goto	i2l1950
  4948   001338  0A03               	xorlw	3	; case 2
  4949   00133A  B4D8               	btfsc	status,2,c
  4950   00133C  D7DE               	goto	i2l1952
  4951   00133E  0A01               	xorlw	1	; case 3
  4952   001340  B4D8               	btfsc	status,2,c
  4953   001342  D7EC               	goto	i2l1954
  4954   001344  0A07               	xorlw	7	; case 4
  4955   001346  A4D8               	btfss	status,2,c
  4956   001348  0012               	return	
  4957   00134A  D7ED               	goto	i2l1956
  4958   00134C                     __end_ofi2_RetardoLCD:
  4959                           	callstack 0
  4960                           
  4961 ;; *************** function i2_HabilitaLCD *****************
  4962 ;; Defined at:
  4963 ;;		line 104 in file "LibLCDXC8.h"
  4964 ;; Parameters:    Size  Location     Type
  4965 ;;		None
  4966 ;; Auto vars:     Size  Location     Type
  4967 ;;		None
  4968 ;; Return value:  Size  Location     Type
  4969 ;;                  1    wreg      void 
  4970 ;; Registers used:
  4971 ;;		wreg
  4972 ;; Tracked objects:
  4973 ;;		On entry : 0/0
  4974 ;;		On exit  : 0/0
  4975 ;;		Unchanged: 0/0
  4976 ;; Data sizes:     COMRAM   BANK0   BANK1   BANK2   BANK3   BANK4   BANK5   BANK6   BANK7
  4977 ;;      Params:         0       0       0       0       0       0       0       0       0
  4978 ;;      Locals:         0       0       0       0       0       0       0       0       0
  4979 ;;      Temps:          0       0       0       0       0       0       0       0       0
  4980 ;;      Totals:         0       0       0       0       0       0       0       0       0
  4981 ;;Total ram usage:        0 bytes
  4982 ;; Hardware stack levels used: 1
  4983 ;; This function calls:
  4984 ;;		Nothing
  4985 ;; This function is called by:
  4986 ;;		i2_EnviaDato
  4987 ;;		i2_BorraLCD
  4988 ;;		i2_EscribeLCD_c
  4989 ;;		i2_DireccionaLCD
  4990 ;; This function uses a non-reentrant model
  4991 ;;
  4992                           
  4993                           	psect	text40
  4994   00186E                     __ptext40:
  4995                           	callstack 0
  4996   00186E                     i2_HabilitaLCD:
  4997                           	callstack 21
  4998                           
  4999                           ;LibLCDXC8.h: 106: LATD7=1;
  5000                           
  5001                           ;incstack = 0
  5002   00186E  8E8C               	bsf	3980,7,c	;volatile
  5003                           
  5004                           ;LibLCDXC8.h: 107: _delay((unsigned long)((40)*(20000000/4000000.0)));
  5005   001870  0E42               	movlw	66
  5006   001872                     i2u182_47:
  5007   001872  2EE8               	decfsz	wreg,f,c
  5008   001874  D7FE               	bra	i2u182_47
  5009   001876  D000               	nop2	
  5010                           
  5011                           ;LibLCDXC8.h: 109: LATD7=0;
  5012   001878  9E8C               	bcf	3980,7,c	;volatile
  5013   00187A  0012               	return		;funcret
  5014   00187C                     __end_ofi2_HabilitaLCD:
  5015                           	callstack 0
  5016                           
  5017 ;; *************** function _Recibir *****************
  5018 ;; Defined at:
  5019 ;;		line 170 in file "Laboratorio5.c"
  5020 ;; Parameters:    Size  Location     Type
  5021 ;;		None
  5022 ;; Auto vars:     Size  Location     Type
  5023 ;;		None
  5024 ;; Return value:  Size  Location     Type
  5025 ;;                  1    wreg      unsigned char 
  5026 ;; Registers used:
  5027 ;;		wreg, status,2
  5028 ;; Tracked objects:
  5029 ;;		On entry : 0/0
  5030 ;;		On exit  : 0/0
  5031 ;;		Unchanged: 0/0
  5032 ;; Data sizes:     COMRAM   BANK0   BANK1   BANK2   BANK3   BANK4   BANK5   BANK6   BANK7
  5033 ;;      Params:         0       0       0       0       0       0       0       0       0
  5034 ;;      Locals:         0       0       0       0       0       0       0       0       0
  5035 ;;      Temps:          0       0       0       0       0       0       0       0       0
  5036 ;;      Totals:         0       0       0       0       0       0       0       0       0
  5037 ;;Total ram usage:        0 bytes
  5038 ;; Hardware stack levels used: 1
  5039 ;; This function calls:
  5040 ;;		Nothing
  5041 ;; This function is called by:
  5042 ;;		_ISR
  5043 ;; This function uses a non-reentrant model
  5044 ;;
  5045                           
  5046                           	psect	text41
  5047   001894                     __ptext41:
  5048                           	callstack 0
  5049   001894                     _Recibir:
  5050                           	callstack 24
  5051                           
  5052                           ;Laboratorio5.c: 171: while(RCIF==0);
  5053                           
  5054                           ;incstack = 0
  5055   001894  AA9E               	btfss	3998,5,c	;volatile
  5056   001896  D7FE               	goto	__ptext41
  5057                           
  5058                           ;Laboratorio5.c: 172: return RCREG;
  5059   001898  50AE               	movf	174,w,c	;volatile
  5060   00189A  0012               	return		;funcret
  5061   00189C                     __end_of_Recibir:
  5062                           	callstack 0
  5063                           
  5064                           	psect	rparam
  5065   000000                     
  5066                           	psect	temp
  5067   00003C                     btemp:
  5068                           	callstack 0
  5069   00003C                     	ds	1
  5070   000000                     int$flags	set	btemp
  5071   000000                     wtemp8	set	btemp+1
  5072   000000                     ttemp5	set	btemp+1
  5073   000000                     ttemp6	set	btemp+4
  5074   000000                     ttemp7	set	btemp+8
  5075                           
  5076                           	psect	idloc
  5077                           
  5078                           ;Config register IDLOC0 @ 0x200000
  5079                           ;	unspecified, using default values
  5080   200000                     	org	2097152
  5081   200000  FF                 	db	255
  5082                           
  5083                           ;Config register IDLOC1 @ 0x200001
  5084                           ;	unspecified, using default values
  5085   200001                     	org	2097153
  5086   200001  FF                 	db	255
  5087                           
  5088                           ;Config register IDLOC2 @ 0x200002
  5089                           ;	unspecified, using default values
  5090   200002                     	org	2097154
  5091   200002  FF                 	db	255
  5092                           
  5093                           ;Config register IDLOC3 @ 0x200003
  5094                           ;	unspecified, using default values
  5095   200003                     	org	2097155
  5096   200003  FF                 	db	255
  5097                           
  5098                           ;Config register IDLOC4 @ 0x200004
  5099                           ;	unspecified, using default values
  5100   200004                     	org	2097156
  5101   200004  FF                 	db	255
  5102                           
  5103                           ;Config register IDLOC5 @ 0x200005
  5104                           ;	unspecified, using default values
  5105   200005                     	org	2097157
  5106   200005  FF                 	db	255
  5107                           
  5108                           ;Config register IDLOC6 @ 0x200006
  5109                           ;	unspecified, using default values
  5110   200006                     	org	2097158
  5111   200006  FF                 	db	255
  5112                           
  5113                           ;Config register IDLOC7 @ 0x200007
  5114                           ;	unspecified, using default values
  5115   200007                     	org	2097159
  5116   200007  FF                 	db	255
  5117                           
  5118                           	psect	config
  5119                           
  5120                           ;Config register CONFIG1L @ 0x300000
  5121                           ;	unspecified, using default values
  5122                           ;	PLL Prescaler Selection bits
  5123                           ;	PLLDIV = 0x0, unprogrammed default
  5124                           ;	System Clock Postscaler Selection bits
  5125                           ;	CPUDIV = 0x0, unprogrammed default
  5126                           ;	USB Clock Selection bit (used in Full-Speed USB mode only; UCFG:FSEN = 1)
  5127                           ;	USBDIV = 0x0, unprogrammed default
  5128   300000                     	org	3145728
  5129   300000  00                 	db	0
  5130                           
  5131                           ;Config register CONFIG1H @ 0x300001
  5132                           ;	Oscillator Selection bits
  5133                           ;	FOSC = INTOSC_EC, Internal oscillator, CLKO function on RA6, EC used by USB (INTCKO)
  5134                           ;	Fail-Safe Clock Monitor Enable bit
  5135                           ;	FCMEN = 0x0, unprogrammed default
  5136                           ;	Internal/External Oscillator Switchover bit
  5137                           ;	IESO = 0x0, unprogrammed default
  5138   300001                     	org	3145729
  5139   300001  09                 	db	9
  5140                           
  5141                           ;Config register CONFIG2L @ 0x300002
  5142                           ;	unspecified, using default values
  5143                           ;	Power-up Timer Enable bit
  5144                           ;	PWRT = 0x1, unprogrammed default
  5145                           ;	Brown-out Reset Enable bits
  5146                           ;	BOR = 0x3, unprogrammed default
  5147                           ;	Brown-out Reset Voltage bits
  5148                           ;	BORV = 0x3, unprogrammed default
  5149                           ;	USB Voltage Regulator Enable bit
  5150                           ;	VREGEN = 0x0, unprogrammed default
  5151   300002                     	org	3145730
  5152   300002  1F                 	db	31
  5153                           
  5154                           ;Config register CONFIG2H @ 0x300003
  5155                           ;	Watchdog Timer Enable bit
  5156                           ;	WDT = OFF, WDT disabled (control is placed on the SWDTEN bit)
  5157                           ;	Watchdog Timer Postscale Select bits
  5158                           ;	WDTPS = 0xF, unprogrammed default
  5159   300003                     	org	3145731
  5160   300003  1E                 	db	30
  5161                           
  5162                           ; Padding undefined space
  5163   300004                     	org	3145732
  5164   300004  FF                 	db	255
  5165                           
  5166                           ;Config register CONFIG3H @ 0x300005
  5167                           ;	CCP2 MUX bit
  5168                           ;	CCP2MX = 0x1, unprogrammed default
  5169                           ;	PORTB A/D Enable bit
  5170                           ;	PBADEN = OFF, PORTB<4:0> pins are configured as digital I/O on Reset
  5171                           ;	Low-Power Timer 1 Oscillator Enable bit
  5172                           ;	LPT1OSC = 0x0, unprogrammed default
  5173                           ;	MCLR Pin Enable bit
  5174                           ;	MCLRE = 0x1, unprogrammed default
  5175   300005                     	org	3145733
  5176   300005  81                 	db	129
  5177                           
  5178                           ;Config register CONFIG4L @ 0x300006
  5179                           ;	unspecified, using default values
  5180                           ;	Stack Full/Underflow Reset Enable bit
  5181                           ;	STVREN = 0x1, unprogrammed default
  5182                           ;	Single-Supply ICSP Enable bit
  5183                           ;	LVP = 0x1, unprogrammed default
  5184                           ;	Dedicated In-Circuit Debug/Programming Port (ICPORT) Enable bit
  5185                           ;	ICPRT = 0x0, unprogrammed default
  5186                           ;	Extended Instruction Set Enable bit
  5187                           ;	XINST = 0x0, unprogrammed default
  5188                           ;	Background Debugger Enable bit
  5189                           ;	DEBUG = 0x1, unprogrammed default
  5190   300006                     	org	3145734
  5191   300006  85                 	db	133
  5192                           
  5193                           ; Padding undefined space
  5194   300007                     	org	3145735
  5195   300007  FF                 	db	255
  5196                           
  5197                           ;Config register CONFIG5L @ 0x300008
  5198                           ;	unspecified, using default values
  5199                           ;	Code Protection bit
  5200                           ;	CP0 = 0x1, unprogrammed default
  5201                           ;	Code Protection bit
  5202                           ;	CP1 = 0x1, unprogrammed default
  5203                           ;	Code Protection bit
  5204                           ;	CP2 = 0x1, unprogrammed default
  5205                           ;	Code Protection bit
  5206                           ;	CP3 = 0x1, unprogrammed default
  5207   300008                     	org	3145736
  5208   300008  0F                 	db	15
  5209                           
  5210                           ;Config register CONFIG5H @ 0x300009
  5211                           ;	unspecified, using default values
  5212                           ;	Boot Block Code Protection bit
  5213                           ;	CPB = 0x1, unprogrammed default
  5214                           ;	Data EEPROM Code Protection bit
  5215                           ;	CPD = 0x1, unprogrammed default
  5216   300009                     	org	3145737
  5217   300009  C0                 	db	192
  5218                           
  5219                           ;Config register CONFIG6L @ 0x30000A
  5220                           ;	unspecified, using default values
  5221                           ;	Write Protection bit
  5222                           ;	WRT0 = 0x1, unprogrammed default
  5223                           ;	Write Protection bit
  5224                           ;	WRT1 = 0x1, unprogrammed default
  5225                           ;	Write Protection bit
  5226                           ;	WRT2 = 0x1, unprogrammed default
  5227                           ;	Write Protection bit
  5228                           ;	WRT3 = 0x1, unprogrammed default
  5229   30000A                     	org	3145738
  5230   30000A  0F                 	db	15
  5231                           
  5232                           ;Config register CONFIG6H @ 0x30000B
  5233                           ;	unspecified, using default values
  5234                           ;	Configuration Register Write Protection bit
  5235                           ;	WRTC = 0x1, unprogrammed default
  5236                           ;	Boot Block Write Protection bit
  5237                           ;	WRTB = 0x1, unprogrammed default
  5238                           ;	Data EEPROM Write Protection bit
  5239                           ;	WRTD = 0x1, unprogrammed default
  5240   30000B                     	org	3145739
  5241   30000B  E0                 	db	224
  5242                           
  5243                           ;Config register CONFIG7L @ 0x30000C
  5244                           ;	unspecified, using default values
  5245                           ;	Table Read Protection bit
  5246                           ;	EBTR0 = 0x1, unprogrammed default
  5247                           ;	Table Read Protection bit
  5248                           ;	EBTR1 = 0x1, unprogrammed default
  5249                           ;	Table Read Protection bit
  5250                           ;	EBTR2 = 0x1, unprogrammed default
  5251                           ;	Table Read Protection bit
  5252                           ;	EBTR3 = 0x1, unprogrammed default
  5253   30000C                     	org	3145740
  5254   30000C  0F                 	db	15
  5255                           
  5256                           ;Config register CONFIG7H @ 0x30000D
  5257                           ;	unspecified, using default values
  5258                           ;	Boot Block Table Read Protection bit
  5259                           ;	EBTRB = 0x1, unprogrammed default
  5260   30000D                     	org	3145741
  5261   30000D  40                 	db	64
  5262                           tosu	equ	0xFFF
  5263                           tosh	equ	0xFFE
  5264                           tosl	equ	0xFFD
  5265                           stkptr	equ	0xFFC
  5266                           pclatu	equ	0xFFB
  5267                           pclath	equ	0xFFA
  5268                           pcl	equ	0xFF9
  5269                           tblptru	equ	0xFF8
  5270                           tblptrh	equ	0xFF7
  5271                           tblptrl	equ	0xFF6
  5272                           tablat	equ	0xFF5
  5273                           prodh	equ	0xFF4
  5274                           prodl	equ	0xFF3
  5275                           indf0	equ	0xFEF
  5276                           postinc0	equ	0xFEE
  5277                           postdec0	equ	0xFED
  5278                           preinc0	equ	0xFEC
  5279                           plusw0	equ	0xFEB
  5280                           fsr0h	equ	0xFEA
  5281                           fsr0l	equ	0xFE9
  5282                           wreg	equ	0xFE8
  5283                           indf1	equ	0xFE7
  5284                           postinc1	equ	0xFE6
  5285                           postdec1	equ	0xFE5
  5286                           preinc1	equ	0xFE4
  5287                           plusw1	equ	0xFE3
  5288                           fsr1h	equ	0xFE2
  5289                           fsr1l	equ	0xFE1
  5290                           bsr	equ	0xFE0
  5291                           indf2	equ	0xFDF
  5292                           postinc2	equ	0xFDE
  5293                           postdec2	equ	0xFDD
  5294                           preinc2	equ	0xFDC
  5295                           plusw2	equ	0xFDB
  5296                           fsr2h	equ	0xFDA
  5297                           fsr2l	equ	0xFD9
  5298                           status	equ	0xFD8

Data Sizes:
    Strings     34
    Constant    0
    Data        1
    BSS         6
    Persistent  0
    Stack       0

Auto Spaces:
    Space          Size  Autos    Used
    COMRAM           94     52      59
    BANK0           160      0       0
    BANK1           256      0       0
    BANK2           256      0       0
    BANK3           256      0       0
    BANK4           256      0       0
    BANK5           256      0       0
    BANK6           256      0       0
    BANK7           256      0       0

Pointer List with Targets:

    MensajeLCD_Word@a	PTR unsigned char  size(1) Largest target is 13
		 -> STR_4(CODE[5]), STR_3(CODE[6]), STR_2(CODE[10]), STR_1(CODE[13]), 


Critical Paths under _main in COMRAM

    _main->_TransmitirDatos
    _TransmitirDatos->_MensajeLCD_Word
    _MensajeLCD_Word->_EscribeLCD_c
    _EscribeLCD_c->_EnviaDato
    _DireccionaLCD->_EnviaDato
    _LeerHT11->_LeerByte
    _LeerByte->_LeerBit
    _InicializaLCD->_EnviaDato
    _BorraLCD->_EnviaDato
    _EnviaDato->_RetardoLCD

Critical Paths under _ISR in COMRAM

    _ISR->i2_TransmitirDatos
    i2_TransmitirDatos->i2_MensajeLCD_Word
    i2_MensajeLCD_Word->i2_EscribeLCD_c
    i2_EscribeLCD_c->i2_EnviaDato
    i2_DireccionaLCD->i2_EnviaDato
    i2_BorraLCD->i2_EnviaDato
    i2_EnviaDato->i2_RetardoLCD

Critical Paths under _main in BANK0

    None.

Critical Paths under _ISR in BANK0

    None.

Critical Paths under _main in BANK1

    None.

Critical Paths under _ISR in BANK1

    None.

Critical Paths under _main in BANK2

    None.

Critical Paths under _ISR in BANK2

    None.

Critical Paths under _main in BANK3

    None.

Critical Paths under _ISR in BANK3

    None.

Critical Paths under _main in BANK4

    None.

Critical Paths under _ISR in BANK4

    None.

Critical Paths under _main in BANK5

    None.

Critical Paths under _ISR in BANK5

    None.

Critical Paths under _main in BANK6

    None.

Critical Paths under _ISR in BANK6

    None.

Critical Paths under _main in BANK7

    None.

Critical Paths under _ISR in BANK7

    None.

Call Graph Tables:

 ---------------------------------------------------------------------------------
 (Depth) Function   	        Calls       Base Space   Used Autos Params    Refs
 ---------------------------------------------------------------------------------
 (0) _main                                                 2     2      0    7401
                                             50 COMRAM     2     2      0
                           _BorraLCD
                           _ColorRGB
                       _ConfiguraLCD
                         _Conversion
                      _DireccionaLCD
                       _EscribeLCD_c
                _GuardarDatoEnEEPROM
                      _InicializaLCD
                           _LeerHT11
                    _MensajeLCD_Word
                    _TransmitirDatos
                            ___lbdiv
                            ___lbmod
                   _leerDatoEnEEPROM
 ---------------------------------------------------------------------------------
 (1) _leerDatoEnEEPROM                                     2     0      2      98
                                             29 COMRAM     2     0      2
 ---------------------------------------------------------------------------------
 (1) _TransmitirDatos                                     14    10      4    4878
                                             38 COMRAM    12     8      4
                           _BorraLCD
                      _DireccionaLCD
                       _EscribeLCD_c
                    _MensajeLCD_Word
                         _Transmitir
                            ___awdiv
                            ___lbdiv
                            ___lbmod
                            ___lwdiv
                            ___lwmod
                             ___wmul
 ---------------------------------------------------------------------------------
 (2) ___wmul                                               6     2      4     311
                                             29 COMRAM     6     2      4
 ---------------------------------------------------------------------------------
 (2) ___lwmod                                              5     1      4     615
                                             29 COMRAM     5     1      4
 ---------------------------------------------------------------------------------
 (2) ___lwdiv                                              7     3      4     922
                                             29 COMRAM     7     3      4
 ---------------------------------------------------------------------------------
 (1) ___lbmod                                              4     3      1     387
                                             29 COMRAM     4     3      1
 ---------------------------------------------------------------------------------
 (1) ___lbdiv                                              4     3      1     390
                                             29 COMRAM     4     3      1
 ---------------------------------------------------------------------------------
 (2) ___awdiv                                              8     4      4     604
                                             29 COMRAM     8     4      4
 ---------------------------------------------------------------------------------
 (2) _Transmitir                                           1     1      0      15
                                             29 COMRAM     1     1      0
 ---------------------------------------------------------------------------------
 (2) _MensajeLCD_Word                                      4     3      1     528
                                             34 COMRAM     4     3      1
                       _EscribeLCD_c
 ---------------------------------------------------------------------------------
 (3) _EscribeLCD_c                                         1     1      0      90
                                             33 COMRAM     1     1      0
                          _EnviaDato
                        _HabilitaLCD
                         _RetardoLCD
 ---------------------------------------------------------------------------------
 (2) _DireccionaLCD                                        1     1      0      90
                                             33 COMRAM     1     1      0
                          _EnviaDato
                        _HabilitaLCD
                         _RetardoLCD
 ---------------------------------------------------------------------------------
 (1) _LeerHT11                                             3     3      0      75
                                             33 COMRAM     2     2      0
                           _LeerByte
 ---------------------------------------------------------------------------------
 (2) _LeerByte                                             3     3      0      75
                                             30 COMRAM     3     3      0
                            _LeerBit
 ---------------------------------------------------------------------------------
 (3) _LeerBit                                              1     1      0      15
                                             29 COMRAM     1     1      0
 ---------------------------------------------------------------------------------
 (1) _InicializaLCD                                        0     0      0     150
                           _BorraLCD
                          _EnviaDato
                        _HabilitaLCD
                         _RetardoLCD
 ---------------------------------------------------------------------------------
 (2) _BorraLCD                                             0     0      0      75
                          _EnviaDato
                        _HabilitaLCD
                         _RetardoLCD
 ---------------------------------------------------------------------------------
 (4) _EnviaDato                                            2     2      0      60
                                             31 COMRAM     2     2      0
                        _HabilitaLCD
                         _RetardoLCD
 ---------------------------------------------------------------------------------
 (4) _RetardoLCD                                           2     2      0      15
                                             29 COMRAM     2     2      0
 ---------------------------------------------------------------------------------
 (4) _HabilitaLCD                                          0     0      0       0
 ---------------------------------------------------------------------------------
 (1) _GuardarDatoEnEEPROM                                  3     0      3     196
                                             29 COMRAM     3     0      3
 ---------------------------------------------------------------------------------
 (1) _Conversion                                           1     1      0      15
                                             29 COMRAM     1     1      0
 ---------------------------------------------------------------------------------
 (1) _ConfiguraLCD                                         1     1      0      45
                                             29 COMRAM     1     1      0
 ---------------------------------------------------------------------------------
 (1) _ColorRGB                                             2     0      2     384
                                             29 COMRAM     2     0      2
 ---------------------------------------------------------------------------------
 Estimated maximum stack depth 4
 ---------------------------------------------------------------------------------
 (Depth) Function   	        Calls       Base Space   Used Autos Params    Refs
 ---------------------------------------------------------------------------------
 (6) _ISR                                                  8     8      0    2998
                                             21 COMRAM     8     8      0
                            _Recibir
                  i2_TransmitirDatos
 ---------------------------------------------------------------------------------
 (7) i2_TransmitirDatos                                   14    10      4    2998
                                              9 COMRAM    12     8      4
                         i2_BorraLCD
                    i2_DireccionaLCD
                     i2_EscribeLCD_c
                  i2_MensajeLCD_Word
                       i2_Transmitir
                          i2___awdiv
                          i2___lbdiv
                          i2___lbmod
                          i2___lwdiv
                          i2___lwmod
                           i2___wmul
 ---------------------------------------------------------------------------------
 (8) i2___wmul                                             6     2      4     211
                                              0 COMRAM     6     2      4
 ---------------------------------------------------------------------------------
 (8) i2___lwmod                                            5     1      4     315
                                              0 COMRAM     5     1      4
 ---------------------------------------------------------------------------------
 (8) i2___lwdiv                                            7     3      4     422
                                              0 COMRAM     7     3      4
 ---------------------------------------------------------------------------------
 (8) i2___lbmod                                            4     3      1     211
                                              0 COMRAM     4     3      1
 ---------------------------------------------------------------------------------
 (8) i2___lbdiv                                            4     3      1     214
                                              0 COMRAM     4     3      1
 ---------------------------------------------------------------------------------
 (8) i2___awdiv                                            8     4      4     404
                                              0 COMRAM     8     4      4
 ---------------------------------------------------------------------------------
 (8) i2_Transmitir                                         1     1      0      22
                                              0 COMRAM     1     1      0
 ---------------------------------------------------------------------------------
 (8) i2_MensajeLCD_Word                                    4     3      1     318
                                              5 COMRAM     4     3      1
                     i2_EscribeLCD_c
 ---------------------------------------------------------------------------------
 (9) i2_EscribeLCD_c                                       1     1      0     132
                                              4 COMRAM     1     1      0
                        i2_EnviaDato
                      i2_HabilitaLCD
                       i2_RetardoLCD
 ---------------------------------------------------------------------------------
 (8) i2_DireccionaLCD                                      1     1      0     132
                                              4 COMRAM     1     1      0
                        i2_EnviaDato
                      i2_HabilitaLCD
                       i2_RetardoLCD
 ---------------------------------------------------------------------------------
 (8) i2_BorraLCD                                           0     0      0     110
                        i2_EnviaDato
                      i2_HabilitaLCD
                       i2_RetardoLCD
 ---------------------------------------------------------------------------------
 (10) i2_EnviaDato                                         2     2      0      88
                                              2 COMRAM     2     2      0
                      i2_HabilitaLCD
                       i2_RetardoLCD
 ---------------------------------------------------------------------------------
 (10) i2_RetardoLCD                                        2     2      0      22
                                              0 COMRAM     2     2      0
 ---------------------------------------------------------------------------------
 (10) i2_HabilitaLCD                                       0     0      0       0
 ---------------------------------------------------------------------------------
 (7) _Recibir                                              0     0      0       0
 ---------------------------------------------------------------------------------
 Estimated maximum stack depth 10
 ---------------------------------------------------------------------------------

 Call Graph Graphs:

 _main (ROOT)
   _BorraLCD
     _EnviaDato
       _HabilitaLCD
       _RetardoLCD
     _HabilitaLCD
     _RetardoLCD
   _ColorRGB
   _ConfiguraLCD
   _Conversion
   _DireccionaLCD
     _EnviaDato
     _HabilitaLCD
     _RetardoLCD
   _EscribeLCD_c
     _EnviaDato
     _HabilitaLCD
     _RetardoLCD
   _GuardarDatoEnEEPROM
   _InicializaLCD
     _BorraLCD
     _EnviaDato
     _HabilitaLCD
     _RetardoLCD
   _LeerHT11
     _LeerByte
       _LeerBit
   _MensajeLCD_Word
     _EscribeLCD_c
   _TransmitirDatos
     _BorraLCD
     _DireccionaLCD
     _EscribeLCD_c
     _MensajeLCD_Word
     _Transmitir
     ___awdiv
     ___lbdiv
     ___lbmod
     ___lwdiv
     ___lwmod
     ___wmul
   ___lbdiv
   ___lbmod
   _leerDatoEnEEPROM

 _ISR (ROOT)
   _Recibir
   i2_TransmitirDatos
     i2_BorraLCD
       i2_EnviaDato
         i2_HabilitaLCD
         i2_RetardoLCD
       i2_HabilitaLCD
       i2_RetardoLCD
     i2_DireccionaLCD
       i2_EnviaDato
       i2_HabilitaLCD
       i2_RetardoLCD
     i2_EscribeLCD_c
       i2_EnviaDato
       i2_HabilitaLCD
       i2_RetardoLCD
     i2_MensajeLCD_Word
       i2_EscribeLCD_c
     i2_Transmitir
     i2___awdiv
     i2___lbdiv
     i2___lbmod
     i2___lwdiv
     i2___lwmod
     i2___wmul

 Address spaces:
Name               Size   Autos  Total    Cost      Usage
BIGRAM             7FF      0       0      34        0.0%
EEDATA             100      0       0       0        0.0%
BITBANK7           100      0       0      18        0.0%
BANK7              100      0       0      19        0.0%
BITBANK6           100      0       0      16        0.0%
BANK6              100      0       0      17        0.0%
BITBANK5           100      0       0      14        0.0%
BANK5              100      0       0      15        0.0%
BITBANK4           100      0       0      12        0.0%
BANK4              100      0       0      13        0.0%
BITBANK3           100      0       0      10        0.0%
BANK3              100      0       0      11        0.0%
BITBANK2           100      0       0       8        0.0%
BANK2              100      0       0       9        0.0%
BITBANK1           100      0       0       6        0.0%
BANK1              100      0       0       7        0.0%
BITBANK0            A0      0       0       4        0.0%
BANK0               A0      0       0       5        0.0%
BITCOMRAM           5E      0       0       0        0.0%
COMRAM              5E     34      3B       1       62.8%
BITBIGSFRll         22      0       0      32        0.0%
BITBIGSFRhhlh       19      0       0      21        0.0%
BITBIGSFRhlhhh       E      0       0      23        0.0%
BITBIGSFRhhh         D      0       0      20        0.0%
BITBIGSFRhllhhl      8      0       0      29        0.0%
BITBIGSFRhlhlh       8      0       0      25        0.0%
BITBIGSFRlh          7      0       0      31        0.0%
BITBIGSFRhlhhl       7      0       0      24        0.0%
BITBIGSFRhlll        5      0       0      30        0.0%
BITBIGSFRhllhhh      4      0       0      27        0.0%
BITBIGSFRhllhhh      2      0       0      28        0.0%
BITBIGSFRhllhhh      1      0       0      26        0.0%
BITBIGSFRhhll        1      0       0      22        0.0%
BIGSFR               0      0       0     200        0.0%
BITSFR               0      0       0     200        0.0%
SFR                  0      0       0     200        0.0%
STACK                0      0       0       2        0.0%
NULL                 0      0       0       0        0.0%
ABS                  0      0      3B      33        0.0%
DATA                 0      0      3B       3        0.0%
CODE                 0      0       0       0        0.0%


Microchip Technology PIC18 Macro Assembler V2.40 build 20220703182018 
Symbol Table                                                                                   Fri May 19 20:17:49 2023

      i2TransmitirDatos@Simb 0012       i2TransmitirDatos@TempC 0014            Transmitir@BufferT 001E  
                         _GO 007E11             i2DireccionaLCD@a 0005                           _RD 007D30  
                         u80 168E                           _WR 007D31                 ___awdiv@sign 0023  
                 EnviaDato@a 0021          ___wmul@multiplicand 0020           i2___lwdiv@dividend 0001  
                        l201 13B4                _InicializaLCD 10DC                          l222 168A  
                        l206 13D0                          l217 1666                          l250 099A  
                        l245 0858                          l272 1838                          l278 1754  
                        l780 1394                          l790 15A2                          _GIE 007F97  
                        _RC0 007C10                          _RC1 007C11                          _RC2 007C12  
                        _RD0 007C18                          _RD1 007C19                          _RD2 007C1A  
                        _RD3 007C1B                          _RD4 007C1C                          _ISR 0008  
                        u490 17B8                          u920 148E                          u960 11BE  
                        _Che 0038                          _Hum 0039             TransmitirDatos@n 002D  
                        wreg 000FE8                         ?_ISR 0001             ??i2_EscribeLCD_c 0005  
                       l1130 167A                         l1060 12C0                         l2020 119C  
                       l2100 136A                         l1054 1284                         l2014 118C  
                       l2110 138A                         l1056 1294                         l1064 12CA  
                       l2120 1580                         l1058 12B6                         l2026 11B2  
                       l2042 11E4                         l2028 11BA                         l2060 1606  
                       l2046 11F2                         l2038 11DA                         l2126 1598  
                       l2118 1578                         l2320 0F42                         l1096 1516  
                       l1504 10EE                         l1184 178C                         l2056 1600  
                       l2072 1624                         l2314 0F22                         l1514 110C  
                       l1194 187E                         l2332 0F82                         l1524 112A  
                       l2068 161C                         l2350 0FE2                         l2326 0F62  
                       l2086 16E0                         l2078 16C8                         l2344 0FC2  
                       l1544 1162                         l2338 0FA2                         l2098 1362  
                       l2370 087A                         l2380 08D4                         l2604 0E82  
                       l2374 08A6                         l2366 0866                         l2382 08FE  
                       l2592 0E0C                         l1990 144A                 i2_Transmitir 1888  
                       _CFGS 007D36                         _EEIF 007D0C                         STR_1 0801  
                       STR_2 080E                         STR_3 0818                         STR_4 081E  
                       u1000 160A                         u1040 136E                         u1300 0F2E  
                       u1070 1584                         u1400 0FCE                         u1320 0F4E  
                       u1420 0FEE                         u1340 0F6E                         u1500 0F0A  
                       u1360 0F8E                         _LATD 000F8C                         u1380 0FAE  
                       u1460 0EDC                         u1470 0EDE                         u1607 0E3A  
                       u1480 0EEA                         u1617 0E56                         u1490 0EEC  
                       u1707 128A                         u1627 0E72                         u1717 129A  
                       u1637 0E8C                         u1727 12AA                         u1647 0EA2  
                       u1737 12B8                         u1657 13AA                         u1577 0D4E  
                       u1747 12C2                         u1667 13BA                         u1587 0DFA  
                       u1757 1864                         u1677 13C6                         u1597 0E1E  
                       u1687 166C                         u1697 167C                         _RCIF 007CF5  
                       _RBPU 007F8F                         _TMR0 000FD6                         _TRMT 007D61  
                       _WREN 007D32               ??_EscribeLCD_c 0022                         _Temp 003A  
        _GuardarDatoEnEEPROM 1738                         _main 0D44           i2___lwdiv@quotient 0005  
                       btemp 003C                         prodh 000FF4                         prodl 000FF3  
                       start 000E              __end_of_LeerBit 1692                 ___param_bank 000000  
                      ??_ISR 0016              __end_of_Recibir 189C              i2_DireccionaLCD 1800  
       ?_GuardarDatoEnEEPROM 001E               ?_InicializaLCD 0001                        ?_main 0001  
            __end_of___awdiv 11FC              __end_of___lbdiv 1628                        _ADRES 000FC3  
                      _EEADR 000FA9                EscribeLCD_c@a 0022              __end_of___lbmod 16E8  
                      _EEPGD 007D37                        _T0CON 000FD5              ___awdiv@divisor 0020  
                      _LATC2 007C5A                        _LATD6 007C66                        _LATD7 007C67  
            __end_of___lwdiv 139E              __end_of___lwmod 15AC                        i2l250 0C2A  
                      i2l245 0AE8                        i2l298 10C0                        i2l780 1438  
                      i2l790 15E4              ___awdiv@counter 0022                        _RCREG 000FAE  
                      _RCSTA 000FAB                        _SPBRG 000FAF                        _TRISA 000F92  
                      _TRISB 000F93                        _TRISC 000F94                        _TRISD 000F95  
                      _TXREG 000FAD                        _TXSTA 000FAC                  ?i2_BorraLCD 0001  
     GuardarDatoEnEEPROM@dir 001E                        tablat 000FF5                   _Conversion 182A  
                _HabilitaLCD 1860             __end_ofi2___wmul 1784                        ttemp5 003D  
                      ttemp6 0040                        ttemp7 0044                        status 000FD8  
                      wtemp8 003D                i2___lbmod@rem 0004              ___lbdiv@divisor 001E  
            ___lbdiv@counter 0020             __end_of_BorraLCD 182A             __end_of_LeerHT11 13F0  
           __end_of_ColorRGB 0FF6              __initialization 1692             __end_of_LeerByte 17A6  
               __end_of_main 0F0E     __end_of_leerDatoEnEEPROM 1860        ??_GuardarDatoEnEEPROM 0021  
                     ??_main 0033         __end_of_ConfiguraLCD 17BE                __activetblptr 000002  
                 _TempEEPROM 0037                       _ADCON0 000FC2                       _ADCON1 000FC1  
                     _ADCON2 000FC0                       _EEDATA 000FA8               DireccionaLCD@a 0022  
                     _EECON2 000FA7             ___awdiv@dividend 001E                       i2l2212 1276  
                     i2l2204 125E                       i2l2222 163A                       i2l2144 1498  
                     i2l2208 1268                       i2l2162 188A                       i2l2234 1656  
                     i2l2226 1640                       i2l2180 1210                       i2l2252 170A  
                     i2l2244 16F2                       i2l2238 165E                       i2l2192 1236  
                     i2l2264 1406                       i2l2194 123E                       i2l2186 1220  
                     i2l2266 140E                       i2l2276 142E                       i2l2292 15DA  
                     i2l2284 15BA                       i2l2460 0B36                       i2l2452 0AF6  
                     i2l2286 15C2                       i2l2456 0B0A                       i2l2632 1036  
                     i2l2466 0B64                       i2l2634 104C                       i2l2642 108E  
                     i2l2626 1028                       i2l2468 0B8E                       i2l2636 1062  
                     i2l2644 10AA                       i2l1950 12EA                       i2l2638 1078  
                     i2l1952 12FA                       i2l1960 1330                       i2l1954 131C  
                     i2l1956 1326                       i2l1972 155C                       _OSCCON 000FD3  
                     _TMR0IE 007F95                       _TMR0IF 007F92                       _TMR0ON 007EAF  
                     _TRISC2 007CA2                    ??_LeerBit 001E        __end_of_DireccionaLCD 17EA  
                 _RetardoLCD 1280                    ??_Recibir 0001      __end_ofi2_DireccionaLCD 1816  
        TransmitirDatos@Ent1 0027          TransmitirDatos@Ent2 0029          TransmitirDatos@Simb 002F  
                     ___wmul 1712                    ??___awdiv 0022                    ??___lbdiv 001F  
                  ??___lbmod 001F                    ??___lwdiv 0022                    ??___lwmod 0022  
            ??_InicializaLCD 0022             ___awdiv@quotient 0024      GuardarDatoEnEEPROM@dato 0020  
                     isa$std 000001         __end_of_EscribeLCD_c 17D4               i2___awdiv@sign 0006  
               ?i2_EnviaDato 0001                 __pdataCOMRAM 003B            __end_ofi2___awdiv 1280  
          __end_ofi2___lbdiv 1662            __end_ofi2___lbmod 1712            __end_ofi2___lwdiv 1442  
               __mediumconst 0000            __end_ofi2___lwmod 15EE                       tblptrh 000FF7  
                     tblptrl 000FF6                       tblptru 000FF8                   _Transmitir 187C  
           ___lbdiv@dividend 001F                  ?_Conversion 0001              ___lbmod@divisor 001E  
      __end_ofi2_HabilitaLCD 187C                   __accesstop 0060      __end_of__initialization 16B0  
            ___lbmod@counter 0020                ___rparam_used 000001           i2___lwmod@dividend 0001  
             __pcstackCOMRAM 0001            __end_of_EnviaDato 1524             ___lbdiv@quotient 0021  
                  ?i2___wmul 0001            i2_MensajeLCD_Word 1490           ?i2_MensajeLCD_Word 0006  
                  ?_BorraLCD 0001                    ?_LeerHT11 0001                    ?_ColorRGB 001E  
                  ?_LeerByte 0001          ??i2_MensajeLCD_Word 0007                  ?_RetardoLCD 0001  
                RetardoLCD@a 001F             ?i2_DireccionaLCD 0001                      ?___wmul 001E  
                    _BAUDCON 000FB8    __end_ofi2_MensajeLCD_Word 14DE                   ??i2___wmul 0005  
               ??i2_BorraLCD 0005                   ??_BorraLCD 0022                   ??_LeerHT11 0022  
                 ??_ColorRGB 0020                  ?_Transmitir 0001            ??_MensajeLCD_Word 0024  
         i2TransmitirDatos@n 0010                   ??_LeerByte 001F                 ?_HabilitaLCD 0001  
                    _IniFlag 0035                      _LeerBit 1662                 _ConfiguraLCD 17A6  
          i2_TransmitirDatos 0AB4                      _Recibir 1894                      __Hparam 0000  
                    __Lparam 0000           ?i2_TransmitirDatos 000A         TransmitirDatos@TempC 0031  
                    ___awdiv 1178                      ___lbdiv 15EE                      ___lbmod 16BE  
                    ___lwdiv 134C                      ___lwmod 156A            ?_leerDatoEnEEPROM 001E  
               __psmallconst 0800           __end_ofi2_BorraLCD 1852                      __pcinit 1692  
        ??i2_TransmitirDatos 000E                      __ramtop 0800                      __ptext0 0D44  
                    __ptext1 1852                      __ptext2 0824                      __ptext3 1712  
                    __ptext4 156A                      __ptext5 134C                      __ptext6 16BE  
         ??_leerDatoEnEEPROM 0020                      __ptext7 15EE                      __ptext8 1178  
                    __ptext9 187C               __pintcode_body 0FF6         end_of_initialization 16B0  
            Conversion@canal 001E    __end_ofi2_TransmitirDatos 0D44                __Lmediumconst 0000  
                    int_func 0FF6          i2___wmul@multiplier 0001                 _EscribeLCD_c 17BE  
__end_of_GuardarDatoEnEEPROM 175E            ??_TransmitirDatos 002B             ___lbmod@dividend 001F  
                  LeerByte@i 0021              i2EscribeLCD_c@a 0005                    i2___awdiv 11FC  
                  i2___lbdiv 1628                    i2___lbmod 16E8            i2___lwdiv@divisor 0003  
                  i2___lwdiv 13F0                    i2___lwmod 15AC            i2___lwdiv@counter 0007  
               ??_Conversion 001E                  ___lbmod@rem 0021                ?i2_RetardoLCD 0001  
         i2___awdiv@dividend 0001               __end_of___wmul 1738                __pidataCOMRAM 189C  
      __end_of_InicializaLCD 1178           __end_of_Conversion 183E             i2___wmul@product 0005  
                  _EnviaDato 14DE          start_initialization 1692           i2___awdiv@quotient 0007  
                __end_of_ISR 10DC                   ?i2___awdiv 0001                   ?i2___lbdiv 0001  
                 ?i2___lbmod 0001                ?i2_Transmitir 0001                   ?i2___lwdiv 0001  
                 ?i2___lwmod 0001               ??i2_RetardoLCD 0001                 ??_RetardoLCD 001E  
         i2___lbdiv@dividend 0002                     ??___wmul 0022              _MensajeLCD_Word 1442  
                 ?_EnviaDato 0001                  __pbssCOMRAM 0035           __end_of_RetardoLCD 12E6  
         i2___lbdiv@quotient 0004             MensajeLCD_Word@a 0023             MensajeLCD_Word@i 0025  
          i2___lwmod@divisor 0003            i2___lwmod@counter 0005               ??i2_Transmitir 0001  
               ??_Transmitir 001E                     ?_LeerBit 0001                _DireccionaLCD 17D4  
                   ?_Recibir 0001               i2_EscribeLCD_c 17EA             ___lwdiv@dividend 001E  
                  __pintcode 0008                     ?___awdiv 001E                     ?___lbdiv 001E  
                   ?___lbmod 001E                     ?___lwdiv 001E                     ?___lwmod 001E  
         __end_of_Transmitir 1888                LeerHT11@contr 0023                  __smallconst 0800  
           ___lwdiv@quotient 0022                  ??i2___awdiv 0005                  ??i2___lbdiv 0002  
                ??i2___lbmod 0002          i2Transmitir@BufferT 0001                  ??i2___lwdiv 0005  
                ??i2___lwmod 0005              _TransmitirDatos 0824               ___wmul@product 0022  
              i2_HabilitaLCD 186E               ?_DireccionaLCD 0001       __end_ofi2_EscribeLCD_c 1800  
                   i2u110_40 14DC                     i2u115_40 1242                     i2u123_40 1412  
                   i2u126_40 15C6                     i2u119_40 1644                     i2u153_40 101E  
                   i2u154_45 1020                     i2u180_47 131E                     i2u181_47 1328  
                   i2u182_47 1872                     i2u176_47 10B4                     i2u177_47 12F0  
                   i2u178_47 1300                     i2u179_47 1310      __end_of_MensajeLCD_Word 1490  
          ___wmul@multiplier 001E                ??i2_EnviaDato 0003         __end_ofi2_RetardoLCD 134C  
                   i2___wmul 175E                  ??_EnviaDato 0020            i2___awdiv@divisor 0003  
          i2___awdiv@counter 0005                     _BorraLCD 1816                     _LeerHT11 139E  
                   _ColorRGB 0F0E                     _LeerByte 1784               ?i2_HabilitaLCD 0001  
            ?i2_EscribeLCD_c 0001          leerDatoEnEEPROM@dir 001E                     __Hrparam 0000  
          i2___lbdiv@divisor 0001            i2___lbdiv@counter 0003                     __Lrparam 0000  
       __end_ofi2_Transmitir 1894        i2___wmul@multiplicand 0003                 i2EnviaDato@a 0004  
              ConfiguraLCD@a 001E            ??i2_DireccionaLCD 0005      __end_of_TransmitirDatos 0AB4  
            ___lwdiv@divisor 0020              ___lwdiv@counter 0024                     __ptext10 1442  
                   __ptext11 17BE                     __ptext20 1860                     __ptext12 17D4  
                   __ptext21 1738                     __ptext13 139E                     __ptext30 16E8  
                   __ptext22 182A                     __ptext14 1784                     __ptext31 1628  
                   __ptext23 17A6                     __ptext15 1662                     __ptext40 186E  
                   __ptext32 11FC                     __ptext24 0F0E                     __ptext16 10DC  
                   __ptext41 1894                     __ptext33 1888                     __ptext17 1816  
                   __ptext34 1490                     __ptext26 0AB4                     __ptext18 14DE  
                   __ptext35 17EA                     __ptext27 175E                     __ptext19 1280  
                   __ptext36 1800                     __ptext28 15AC                     __ptext37 183E  
                   __ptext29 13F0                     __ptext38 1524                     __ptext39 12E6  
        __end_ofi2_EnviaDato 156A           i2___lbmod@dividend 0002              ??_DireccionaLCD 0022  
                   _interfaz 003B                     isa$xinst 000000             ?_MensajeLCD_Word 0023  
                   int$flags 003C             _leerDatoEnEEPROM 1852              ??i2_HabilitaLCD 0001  
                   intlevel2 0000                ??_HabilitaLCD 001E             ___lwmod@dividend 001E  
              ?_ConfiguraLCD 0001            i2___lbmod@divisor 0001            i2___lbmod@counter 0003  
              i2RetardoLCD@a 0002                  ColorRGB@val 001E                  i2_EnviaDato 1524  
            ___lwmod@divisor 0020              ___lwmod@counter 0022             ?_TransmitirDatos 0027  
                 i2_BorraLCD 183E               ??_ConfiguraLCD 001E           i2MensajeLCD_Word@a 0006  
         i2MensajeLCD_Word@i 0008                ?_EscribeLCD_c 0001                   LeerBit@res 001E  
               i2_RetardoLCD 12E6          __end_of_HabilitaLCD 186E                  LeerByte@res 0020  
      i2TransmitirDatos@Ent1 000A        i2TransmitirDatos@Ent2 000C  
